
outfile.elf:     file format elf32-littlemips

Contents of section .reset:
 9d001000 009d1a3c 10105a27 08004003 00000000  ...<..Z'..@.....
Contents of section .image_ptr_table:
 9d0000f8 0000009d e823009d                    .....#..        
Contents of section .app_excpt:
 9d000180 00701a40 04005a23 00709a40 18000042  .p.@..Z#.p.@...B
 9d000190 00000000 009d1a3c 94015a27 08004003  .......<..Z'..@.
 9d0001a0 00000000                             ....            
Contents of section .vector_0:
 9d000200 009d1a3c 30225a37 00005a8f 08004003  ...<0"Z7..Z...@.
 9d000210 00000000 00000000 00000000 00000000  ................
Contents of section .vector_1:
 9d000220 009d1a3c 30225a37 04005a8f 08004003  ...<0"Z7..Z...@.
 9d000230 00000000 00000000 00000000 00000000  ................
Contents of section .vector_2:
 9d000240 009d1a3c 30225a37 08005a8f 08004003  ...<0"Z7..Z...@.
 9d000250 00000000 00000000 00000000 00000000  ................
Contents of section .vector_3:
 9d000260 009d1a3c 30225a37 0c005a8f 08004003  ...<0"Z7..Z...@.
 9d000270 00000000 00000000 00000000 00000000  ................
Contents of section .vector_4:
 9d000280 009d1a3c 30225a37 10005a8f 08004003  ...<0"Z7..Z...@.
 9d000290 00000000 00000000 00000000 00000000  ................
Contents of section .vector_5:
 9d0002a0 009d1a3c 30225a37 14005a8f 08004003  ...<0"Z7..Z...@.
 9d0002b0 00000000 00000000 00000000 00000000  ................
Contents of section .vector_6:
 9d0002c0 009d1a3c 30225a37 18005a8f 08004003  ...<0"Z7..Z...@.
 9d0002d0 00000000 00000000 00000000 00000000  ................
Contents of section .vector_7:
 9d0002e0 009d1a3c 30225a37 1c005a8f 08004003  ...<0"Z7..Z...@.
 9d0002f0 00000000 00000000 00000000 00000000  ................
Contents of section .vector_8:
 9d000300 009d1a3c 30225a37 20005a8f 08004003  ...<0"Z7 .Z...@.
 9d000310 00000000 00000000 00000000 00000000  ................
Contents of section .vector_9:
 9d000320 009d1a3c 30225a37 24005a8f 08004003  ...<0"Z7$.Z...@.
 9d000330 00000000 00000000 00000000 00000000  ................
Contents of section .vector_10:
 9d000340 009d1a3c 30225a37 28005a8f 08004003  ...<0"Z7(.Z...@.
 9d000350 00000000 00000000 00000000 00000000  ................
Contents of section .vector_11:
 9d000360 009d1a3c 30225a37 2c005a8f 08004003  ...<0"Z7,.Z...@.
 9d000370 00000000 00000000 00000000 00000000  ................
Contents of section .vector_12:
 9d000380 009d1a3c 30225a37 30005a8f 08004003  ...<0"Z70.Z...@.
 9d000390 00000000 00000000 00000000 00000000  ................
Contents of section .vector_13:
 9d0003a0 009d1a3c 30225a37 34005a8f 08004003  ...<0"Z74.Z...@.
 9d0003b0 00000000 00000000 00000000 00000000  ................
Contents of section .vector_14:
 9d0003c0 009d1a3c 30225a37 38005a8f 08004003  ...<0"Z78.Z...@.
 9d0003d0 00000000 00000000 00000000 00000000  ................
Contents of section .vector_15:
 9d0003e0 009d1a3c 30225a37 3c005a8f 08004003  ...<0"Z7<.Z...@.
 9d0003f0 00000000 00000000 00000000 00000000  ................
Contents of section .vector_16:
 9d000400 009d1a3c 30225a37 40005a8f 08004003  ...<0"Z7@.Z...@.
 9d000410 00000000 00000000 00000000 00000000  ................
Contents of section .vector_17:
 9d000420 009d1a3c 30225a37 44005a8f 08004003  ...<0"Z7D.Z...@.
 9d000430 00000000 00000000 00000000 00000000  ................
Contents of section .vector_18:
 9d000440 009d1a3c 30225a37 48005a8f 08004003  ...<0"Z7H.Z...@.
 9d000450 00000000 00000000 00000000 00000000  ................
Contents of section .vector_19:
 9d000460 009d1a3c 30225a37 4c005a8f 08004003  ...<0"Z7L.Z...@.
 9d000470 00000000 00000000 00000000 00000000  ................
Contents of section .vector_20:
 9d000480 009d1a3c 30225a37 50005a8f 08004003  ...<0"Z7P.Z...@.
 9d000490 00000000 00000000 00000000 00000000  ................
Contents of section .vector_21:
 9d0004a0 009d1a3c 30225a37 54005a8f 08004003  ...<0"Z7T.Z...@.
 9d0004b0 00000000 00000000 00000000 00000000  ................
Contents of section .vector_22:
 9d0004c0 009d1a3c 30225a37 58005a8f 08004003  ...<0"Z7X.Z...@.
 9d0004d0 00000000 00000000 00000000 00000000  ................
Contents of section .vector_23:
 9d0004e0 009d1a3c 30225a37 5c005a8f 08004003  ...<0"Z7\.Z...@.
 9d0004f0 00000000 00000000 00000000 00000000  ................
Contents of section .vector_24:
 9d000500 009d1a3c 30225a37 60005a8f 08004003  ...<0"Z7`.Z...@.
 9d000510 00000000 00000000 00000000 00000000  ................
Contents of section .vector_25:
 9d000520 009d1a3c 30225a37 64005a8f 08004003  ...<0"Z7d.Z...@.
 9d000530 00000000 00000000 00000000 00000000  ................
Contents of section .vector_26:
 9d000540 009d1a3c 30225a37 68005a8f 08004003  ...<0"Z7h.Z...@.
 9d000550 00000000 00000000 00000000 00000000  ................
Contents of section .vector_27:
 9d000560 009d1a3c 30225a37 6c005a8f 08004003  ...<0"Z7l.Z...@.
 9d000570 00000000 00000000 00000000 00000000  ................
Contents of section .vector_28:
 9d000580 009d1a3c 30225a37 70005a8f 08004003  ...<0"Z7p.Z...@.
 9d000590 00000000 00000000 00000000 00000000  ................
Contents of section .vector_29:
 9d0005a0 009d1a3c 30225a37 74005a8f 08004003  ...<0"Z7t.Z...@.
 9d0005b0 00000000 00000000 00000000 00000000  ................
Contents of section .vector_30:
 9d0005c0 009d1a3c 30225a37 78005a8f 08004003  ...<0"Z7x.Z...@.
 9d0005d0 00000000 00000000 00000000 00000000  ................
Contents of section .vector_31:
 9d0005e0 009d1a3c 30225a37 7c005a8f 08004003  ...<0"Z7|.Z...@.
 9d0005f0 00000000 00000000 00000000 00000000  ................
Contents of section .vector_32:
 9d000600 009d1a3c 30225a37 80005a8f 08004003  ...<0"Z7..Z...@.
 9d000610 00000000 00000000 00000000 00000000  ................
Contents of section .vector_33:
 9d000620 009d1a3c 30225a37 84005a8f 08004003  ...<0"Z7..Z...@.
 9d000630 00000000 00000000 00000000 00000000  ................
Contents of section .vector_34:
 9d000640 009d1a3c 30225a37 88005a8f 08004003  ...<0"Z7..Z...@.
 9d000650 00000000 00000000 00000000 00000000  ................
Contents of section .vector_35:
 9d000660 009d1a3c 30225a37 8c005a8f 08004003  ...<0"Z7..Z...@.
 9d000670 00000000 00000000 00000000 00000000  ................
Contents of section .vector_36:
 9d000680 009d1a3c 30225a37 90005a8f 08004003  ...<0"Z7..Z...@.
 9d000690 00000000 00000000 00000000 00000000  ................
Contents of section .vector_37:
 9d0006a0 009d1a3c 30225a37 94005a8f 08004003  ...<0"Z7..Z...@.
 9d0006b0 00000000 00000000 00000000 00000000  ................
Contents of section .vector_38:
 9d0006c0 009d1a3c 30225a37 98005a8f 08004003  ...<0"Z7..Z...@.
 9d0006d0 00000000 00000000 00000000 00000000  ................
Contents of section .vector_39:
 9d0006e0 009d1a3c 30225a37 9c005a8f 08004003  ...<0"Z7..Z...@.
 9d0006f0 00000000 00000000 00000000 00000000  ................
Contents of section .vector_40:
 9d000700 009d1a3c 30225a37 a0005a8f 08004003  ...<0"Z7..Z...@.
 9d000710 00000000 00000000 00000000 00000000  ................
Contents of section .vector_41:
 9d000720 009d1a3c 30225a37 a4005a8f 08004003  ...<0"Z7..Z...@.
 9d000730 00000000 00000000 00000000 00000000  ................
Contents of section .vector_42:
 9d000740 009d1a3c 30225a37 a8005a8f 08004003  ...<0"Z7..Z...@.
 9d000750 00000000 00000000 00000000 00000000  ................
Contents of section .vector_43:
 9d000760 009d1a3c 30225a37 ac005a8f 08004003  ...<0"Z7..Z...@.
 9d000770 00000000 00000000 00000000 00000000  ................
Contents of section .vector_44:
 9d000780 009d1a3c 30225a37 b0005a8f 08004003  ...<0"Z7..Z...@.
 9d000790 00000000 00000000 00000000 00000000  ................
Contents of section .vector_45:
 9d0007a0 009d1a3c 30225a37 b4005a8f 08004003  ...<0"Z7..Z...@.
 9d0007b0 00000000 00000000 00000000 00000000  ................
Contents of section .vector_46:
 9d0007c0 009d1a3c 30225a37 b8005a8f 08004003  ...<0"Z7..Z...@.
 9d0007d0 00000000 00000000 00000000 00000000  ................
Contents of section .vector_47:
 9d0007e0 009d1a3c 30225a37 bc005a8f 08004003  ...<0"Z7..Z...@.
 9d0007f0 00000000 00000000 00000000 00000000  ................
Contents of section .vector_48:
 9d000800 009d1a3c 30225a37 c0005a8f 08004003  ...<0"Z7..Z...@.
 9d000810 00000000 00000000 00000000 00000000  ................
Contents of section .vector_49:
 9d000820 009d1a3c 30225a37 c4005a8f 08004003  ...<0"Z7..Z...@.
 9d000830 00000000 00000000 00000000 00000000  ................
Contents of section .vector_50:
 9d000840 009d1a3c 30225a37 c8005a8f 08004003  ...<0"Z7..Z...@.
 9d000850 00000000 00000000 00000000 00000000  ................
Contents of section .vector_51:
 9d000860 009d1a3c 30225a37 cc005a8f 08004003  ...<0"Z7..Z...@.
 9d000870 00000000 00000000 00000000 00000000  ................
Contents of section .vector_52:
 9d000880 009d1a3c 30225a37 d0005a8f 08004003  ...<0"Z7..Z...@.
 9d000890 00000000 00000000 00000000 00000000  ................
Contents of section .vector_53:
 9d0008a0 009d1a3c 30225a37 d4005a8f 08004003  ...<0"Z7..Z...@.
 9d0008b0 00000000 00000000 00000000 00000000  ................
Contents of section .vector_54:
 9d0008c0 009d1a3c 30225a37 d8005a8f 08004003  ...<0"Z7..Z...@.
 9d0008d0 00000000 00000000 00000000 00000000  ................
Contents of section .vector_55:
 9d0008e0 009d1a3c 30225a37 dc005a8f 08004003  ...<0"Z7..Z...@.
 9d0008f0 00000000 00000000 00000000 00000000  ................
Contents of section .vector_56:
 9d000900 009d1a3c 30225a37 e0005a8f 08004003  ...<0"Z7..Z...@.
 9d000910 00000000 00000000 00000000 00000000  ................
Contents of section .vector_57:
 9d000920 009d1a3c 30225a37 e4005a8f 08004003  ...<0"Z7..Z...@.
 9d000930 00000000 00000000 00000000 00000000  ................
Contents of section .vector_58:
 9d000940 009d1a3c 30225a37 e8005a8f 08004003  ...<0"Z7..Z...@.
 9d000950 00000000 00000000 00000000 00000000  ................
Contents of section .vector_59:
 9d000960 009d1a3c 30225a37 ec005a8f 08004003  ...<0"Z7..Z...@.
 9d000970 00000000 00000000 00000000 00000000  ................
Contents of section .vector_60:
 9d000980 009d1a3c 30225a37 f0005a8f 08004003  ...<0"Z7..Z...@.
 9d000990 00000000 00000000 00000000 00000000  ................
Contents of section .vector_61:
 9d0009a0 009d1a3c 30225a37 f4005a8f 08004003  ...<0"Z7..Z...@.
 9d0009b0 00000000 00000000 00000000 00000000  ................
Contents of section .vector_62:
 9d0009c0 009d1a3c 30225a37 f8005a8f 08004003  ...<0"Z7..Z...@.
 9d0009d0 00000000 00000000 00000000 00000000  ................
Contents of section .vector_63:
 9d0009e0 009d1a3c 30225a37 fc005a8f 08004003  ...<0"Z7..Z...@.
 9d0009f0 00000000                             ....            
Contents of section .startup:
 9d001010 00601a40 c0045a7f 05004013 00000000  .`.@..Z...@.....
 9d001020 009d1a3c 48135a27 08004003 00000000  ...<H.Z'..@.....
 9d001030 00a01d3c 0040bd27 00a01c3c 38009c27  ...<.@.'...<8..'
 9d001040 02600940 20582001 801e2a7d 8449497d  .`.@ X ...*}.II}
 9d001050 02608940 c0000000 00e0dc41 02608b40  .`.@.......A.`.@
 9d001060 c0000000 009d083c 5c130825 09f80001  .......<\..%....
 9d001070 00000000 00a0083c 38000825 00a0093c  .......<8..%...<
 9d001080 94002925 06000010 00000000 000000ad  ..)%............
 9d001090 040000ad 080000ad 0c0000ad 10000825  ...............%
 9d0010a0 2b080901 f9ff2014 00000000 009d083c  +..... ........<
 9d0010b0 30290825 00a0093c 08002925 00a00a3c  0).%...<..)%...<
 9d0010c0 38004a25 05000010 00000000 00000b8d  8.J%............
 9d0010d0 00002bad 04000825 04002925 2b082a01  ..+....%..)%+.*.
 9d0010e0 faff2014 00000000 00488040 ffff0a24  .. ......H.@...$
 9d0010f0 00588a40 009d093c 00002925 01788940  .X.@...<..)%.x.@
 9d001100 0000093c 01002925 00000a24 44492a7d  ...<..)%...$DI*}
 9d001110 01608a40 8000093c 00688940 00800840  .`.@...<.h.@...@
 9d001120 8005097d 404c0900 00600840 5800013c  ...}@L...`.@X..<
 9d001130 24400101 25402801 00608840 009d083c  $@..%@(..`.@...<
 9d001140 7c130825 09f80001 00000000 00600840  |..%.........`.@
 9d001150 bfff013c ffff2134 24400101 00608840  ...<..!4$@...`.@
 9d001160 00008430 0000a530 009d083c d0230825  ...0...0...<.#.%
 9d001170 08000001 00000000                    ........        
Contents of section .text:
 9d001180 e8ffbd27 1400bfaf 1000beaf 21f0a003  ...'........!...
 9d001190 80bf023c 04f04234 1000033c 000043ac  ...<..B4...<..C.
 9d0011a0 80bf023c 08f04234 0800033c 000043ac  ...<..B4...<..C.
 9d0011b0 80bf023c 60904234 ffff0334 000043ac  ...<`.B4...4..C.
 9d0011c0 88bf023c 30614234 000040ac 88bf023c  ...<0aB4..@....<
 9d0011d0 04614234 ff000324 000043ac 88bf023c  .aB4...$..C....<
 9d0011e0 10614234 000040ac 88bf023c 50614234  .aB4..@....<PaB4
 9d0011f0 ffff0334 000043ac 88bf023c 90614234  ...4..C....<.aB4
 9d001200 00020324 000043ac 88bf023c 70614234  ...$..C....<paB4
 9d001210 000040ac 88bf023c b0614234 000040ac  ..@....<.aB4..@.
 9d001220 88bf023c 44614234 70000324 000043ac  ...<DaB4p..$..C.
 9d001230 88bf023c 84614234 00020324 000043ac  ...<.aB4...$..C.
 9d001240 88bf023c c8604234 00010324 000043ac  ...<.`B4...$..C.
 9d001250 88bf023c 48614234 02000324 000043ac  ...<HaB4...$..C.
 9d001260 80bf023c 005a4234 000040ac 80bf023c  ...<.ZB4..@....<
 9d001270 305a4234 04000324 000043ac 80bf023c  0ZB4...$..C....<
 9d001280 145a4234 40000324 000043ac 80bf023c  .ZB4@..$..C....<
 9d001290 085a4234 40000324 000043ac 80bf023c  .ZB4@..$..C....<
 9d0012a0 085a4234 20000324 000043ac 80bf023c  .ZB4 ..$..C....<
 9d0012b0 085a4234 00800334 000043ac f605400f  .ZB4...4..C...@.
 9d0012c0 00000000 21200000 009d023c b4284524  ....! .....<.(E$
 9d0012d0 4306400f 00000000 01000424 009d023c  C.@........$...<
 9d0012e0 c0284524 4306400f 00000000 02000424  .(E$C.@........$
 9d0012f0 009d023c cc284524 4306400f 00000000  ...<.(E$C.@.....
 9d001300 03000424 009d023c d8284524 4306400f  ...$...<.(E$C.@.
 9d001310 00000000 cf06400f 00000000 60000424  ......@.....`..$
 9d001320 009d023c 34284524 8106400f 00000000  ...<4(E$..@.....
 9d001330 1305400f 00000000 3e05400f 00000000  ..@.....>.@.....
 9d001340 ce04400b 00000000 f8ffbd27 0400beaf  ..@........'....
 9d001350 21f0a003 d504400b 00000000 f8ffbd27  !.....@........'
 9d001360 0400beaf 21f0a003 21e8c003 0400be8f  ....!...!.......
 9d001370 0800bd27 0800e003 00000000 f8ffbd27  ...'...........'
 9d001380 0400beaf 21f0a003 21e8c003 0400be8f  ....!...!.......
 9d001390 0800bd27 0800e003 00000000 e8ffbd27  ...'...........'
 9d0013a0 1400bfaf 1000beaf 21f0a003 88bf023c  ........!......<
 9d0013b0 30104234 000040ac 00a0023c 7800428c  0.B4..@....<x.B.
 9d0013c0 01004324 00a0023c 780043ac 00a0023c  ..C$...<x.C....<
 9d0013d0 7800438c 0a000224 15006214 00000000  x.C....$..b.....
 9d0013e0 00a0023c 0c00438c 00a0023c 10004424  ...<..C....<..D$
 9d0013f0 21286000 4208400f 00000000 03000424  !(`.B.@........$
 9d001400 00a0023c 10004524 4306400f 00000000  ...<..E$C.@.....
 9d001410 cf06400f 00000000 00a0023c 0c004424  ..@........<..D$
 9d001420 6e05400f 00000000 00a0023c 780040ac  n.@........<x.@.
 9d001430 00000000 21e8c003 1400bf8f 1000be8f  ....!...........
 9d001440 1800bd27 0800e003 00000000 e0ffbd27  ...'...........'
 9d001450 1c00bfaf 1800beaf 21f0a003 88bf023c  ........!......<
 9d001460 00614234 1000c2af 88bf023c c0604234  .aB4.......<.`B4
 9d001470 e00f0324 000043ac 80bf023c 20084234  ...$..C....< .B4
 9d001480 127a0324 000043ac 80bf023c 10084234  .z.$..C....<..B4
 9d001490 000040ac 80bf023c 00084234 70000324  ..@....<..B4p..$
 9d0014a0 000043ac 88bf023c 60104234 00010324  ..C....<`.B4...$
 9d0014b0 000043ac 88bf023c b0104234 04000324  ..C....<..B4...$
 9d0014c0 000043ac 80bf023c 08084234 00800334  ..C....<..B4...4
 9d0014d0 000043ac 8808400f 00000000 00000000  ..C...@.........
 9d0014e0 21e8c003 1c00bf8f 1800be8f 2000bd27  !........... ..'
 9d0014f0 0800e003 00000000 e8ffbd27 1400bfaf  ...........'....
 9d001500 1000beaf 21f0a003 00a0023c 0800428c  ....!......<..B.
 9d001510 21204000 4707400f 00000000 21184000  ! @.G.@.....!.@.
 9d001520 00a0023c 080043ac 00a0023c 0800428c  ...<..C....<..B.
 9d001530 21204000 9207400f 00000000 21200000  ! @...@.....! ..
 9d001540 21284000 4306400f 00000000 cf06400f  !(@.C.@.......@.
 9d001550 00000000 21e8c003 1400bf8f 1000be8f  ....!...........
 9d001560 1800bd27 0800e003 00000000 f0ffbd27  ...'...........'
 9d001570 0c00beaf 21f0a003 1000c4af 1000c28f  ....!...........
 9d001580 0000c2af 6605400b 00000000 0000c28f  ....f.@.........
 9d001590 ffff4224 0000c2af 0000c28f fbff401c  ..B$..........@.
 9d0015a0 00000000 21e8c003 0c00be8f 1000bd27  ....!..........'
 9d0015b0 0800e003 00000000 f8ffbd27 0400beaf  ...........'....
 9d0015c0 0000b0af 21f0a003 0800c4af 0800c28f  ....!...........
 9d0015d0 0000508c 01001026 0f000232 0a00422c  ..P....&...2..B,
 9d0015e0 02004014 00000000 06001026 f0000232  ..@........&...2
 9d0015f0 6000422c 02004014 00000000 a0001026  `.B,..@........&
 9d001600 000f0232 000a422c 02004014 00000000  ...2..B,..@.....
 9d001610 00061026 00f00232 0060422c 03004014  ...&...2.`B,..@.
 9d001620 00000000 00a00234 21800202 0f00023c  .......4!......<
 9d001630 24180202 0a00023c 2b106200 03004014  $......<+.b...@.
 9d001640 00000000 0600023c 21800202 ff00023c  .......<!......<
 9d001650 24180202 2400023c 2b106200 03004014  $...$..<+.b...@.
 9d001660 00000000 dc00023c 21800202 000f023c  .......<!......<
 9d001670 24180202 000a023c 2b106200 03004014  $......<+.b...@.
 9d001680 00000000 0006023c 21800202 00f0023c  .......<!......<
 9d001690 24180202 00a0023c 2b106200 02004014  $......<+.b...@.
 9d0016a0 00000000 21800000 0800c28f 000050ac  ....!.........P.
 9d0016b0 21e8c003 0400be8f 0000b08f 0800bd27  !..............'
 9d0016c0 0800e003 00000000 e8ffbd27 1400bfaf  ...........'....
 9d0016d0 1000beaf 21f0a003 1800c4af 01000424  ....!..........$
 9d0016e0 009d023c e4284524 4306400f 00000000  ...<.(E$C.@.....
 9d0016f0 02000424 009d023c ec284524 4306400f  ...$...<.(E$C.@.
 9d001700 00000000 1800c38f 00a0023c 4e004424  ...........<N.D$
 9d001710 21286000 2707400f 00000000 1800c28f  !(`.'.@.........
 9d001720 0000438c 00a0023c 5e004424 21286000  ..C....<^.D$!(`.
 9d001730 2707400f 00000000 cf06400f 00000000  '.@.......@.....
 9d001740 21e8c003 1400bf8f 1000be8f 1800bd27  !..............'
 9d001750 0800e003 00000000 f8ffbd27 0400beaf  ...........'....
 9d001760 21f0a003 21108000 0800c2a3 00000000  !...!...........
 9d001770 80bf023c 105a4234 0000428c 08004230  ...<.ZB4..B...B0
 9d001780 fbff4010 00000000 80bf023c 205a4234  ..@........< ZB4
 9d001790 0800c393 000043ac 00000000 80bf023c  ......C........<
 9d0017a0 105a4234 0000428c 01004230 fbff4010  .ZB4..B...B0..@.
 9d0017b0 00000000 80bf023c 205a4234 0000428c  .......< ZB4..B.
 9d0017c0 ff004230 21e8c003 0400be8f 0800bd27  ..B0!..........'
 9d0017d0 0800e003 00000000 e8ffbd27 1400bfaf  ...........'....
 9d0017e0 1000beaf 21f0a003 88bf023c 54614234  ....!......<TaB4
 9d0017f0 10000324 000043ac 0a000424 5b05400f  ...$..C....$[.@.
 9d001800 00000000 88bf023c 54614234 40000324  .......<TaB4@..$
 9d001810 000043ac 0f00023c 40424434 5b05400f  ..C....<@BD4[.@.
 9d001820 00000000 ae000424 d605400f 00000000  .......$..@.....
 9d001830 88bf023c 94614234 00020324 000043ac  ...<.aB4...$..C.
 9d001840 0a000424 5b05400f 00000000 88bf023c  ...$[.@........<
 9d001850 98614234 00020324 000043ac 0a000424  .aB4...$..C....$
 9d001860 5b05400f 00000000 8d000424 d605400f  [.@........$..@.
 9d001870 00000000 14000424 d605400f 00000000  .......$..@.....
 9d001880 d9000424 d605400f 00000000 f1000424  ...$..@........$
 9d001890 d605400f 00000000 88bf023c 54614234  ..@........<TaB4
 9d0018a0 20000324 000043ac 9800023c 80964434   ..$..C....<..D4
 9d0018b0 5b05400f 00000000 a1000424 d605400f  [.@........$..@.
 9d0018c0 00000000 c8000424 d605400f 00000000  .......$..@.....
 9d0018d0 da000424 d605400f 00000000 20000424  ...$..@..... ..$
 9d0018e0 d605400f 00000000 af000424 d605400f  ..@........$..@.
 9d0018f0 00000000 21e8c003 1400bf8f 1000be8f  ....!...........
 9d001900 1800bd27 0800e003 00000000 f0ffbd27  ...'...........'
 9d001910 0c00beaf 21f0a003 1000c4af 1400c5af  ....!...........
 9d001920 1000c28f 05004004 00000000 1000c28f  ......@.........
 9d001930 04004228 03004014 00000000 7c06400b  ..B(..@.....|.@.
 9d001940 00000000 1400c28f 03004014 00000000  ..........@.....
 9d001950 7c06400b 00000000 0000c0af 7806400b  |.@.........x.@.
 9d001960 00000000 1400c28f 00004280 10004010  ..........B...@.
 9d001970 00000000 1400c28f 00004380 00a0023c  ..........C....<
 9d001980 1000c48f 00290400 0000c48f 2120a400  .....)......! ..
 9d001990 38004224 21108200 000043a0 1400c28f  8.B$!.....C.....
 9d0019a0 01004224 1400c2af 7506400b 00000000  ..B$....u.@.....
 9d0019b0 00a0023c 1000c38f 00210300 0000c38f  ...<.....!......
 9d0019c0 21188300 38004224 21106200 20000324  !...8.B$!.b. ..$
 9d0019d0 000043a0 0000c28f 01004224 0000c2af  ..C.......B$....
 9d0019e0 0000c28f 10004228 deff4014 00000000  ......B(..@.....
 9d0019f0 21e8c003 0c00be8f 1000bd27 0800e003  !..........'....
 9d001a00 00000000 e0ffbd27 1c00bfaf 1800beaf  .......'........
 9d001a10 21f0a003 2000c4af 2400c5af 1000c0af  !... ...$.......
 9d001a20 c506400b 00000000 88bf023c 54614234  ..@........<TaB4
 9d001a30 10000324 000043ac 22000424 d605400f  ...$..C."..$..@.
 9d001a40 00000000 1000c28f ff004230 21204000  ..........B0! @.
 9d001a50 d605400f 00000000 2000c28f ff004230  ..@..... .....B0
 9d001a60 0f004230 21204000 d605400f 00000000  ..B0! @...@.....
 9d001a70 2000c28f 03110200 2014027c 0f004230   ....... ..|..B0
 9d001a80 2014027c 10004234 2014027c ff004230   ..|..B4 ..|..B0
 9d001a90 21204000 d605400f 00000000 88bf023c  ! @...@........<
 9d001aa0 58614234 10000324 000043ac 1400c0af  XaB4...$..C.....
 9d001ab0 be06400b 00000000 1000c28f 40190200  ..@.........@...
 9d001ac0 1400c28f 21106200 21184000 2400c28f  ....!.b.!.@.$...
 9d001ad0 21104300 00004290 27100200 ff004230  !.C...B.'.....B0
 9d001ae0 21204000 d605400f 00000000 1400c28f  ! @...@.........
 9d001af0 01004224 1400c2af 1400c28f 20004228  ..B$........ .B(
 9d001b00 edff4014 00000000 1000c28f 01004224  ..@...........B$
 9d001b10 1000c2af 1000c28f 04004228 c2ff4014  ..........B(..@.
 9d001b20 00000000 21e8c003 1c00bf8f 1800be8f  ....!...........
 9d001b30 2000bd27 0800e003 00000000 d8ffbd27   ..'...........'
 9d001b40 2400bfaf 2000beaf 21f0a003 1000c0af  $... ...!.......
 9d001b50 1d07400b 00000000 88bf023c 54614234  ..@........<TaB4
 9d001b60 10000324 000043ac 22000424 d605400f  ...$..C."..$..@.
 9d001b70 00000000 1000c28f ff004230 21204000  ..........B0! @.
 9d001b80 d605400f 00000000 21200000 d605400f  ..@.....! ....@.
 9d001b90 00000000 10000424 d605400f 00000000  .......$..@.....
 9d001ba0 88bf023c 58614234 10000324 000043ac  ...<XaB4...$..C.
 9d001bb0 1400c0af 1607400b 00000000 00a0023c  ......@........<
 9d001bc0 1000c38f 00210300 1400c38f 21188300  .....!......!...
 9d001bd0 38004224 21106200 00004280 1c00c2af  8.B$!.b...B.....
 9d001be0 1c00c28f 80004230 03004010 00000000  ......B0..@.....
 9d001bf0 1307400b 00000000 1800c0af 0f07400b  ..@...........@.
 9d001c00 00000000 1c00c28f c0180200 1800c28f  ................
 9d001c10 21186200 009d023c 34244224 21106200  !.b....<4$B$!.b.
 9d001c20 00004290 21204000 d605400f 00000000  ..B.! @...@.....
 9d001c30 1800c28f 01004224 1800c2af 1800c28f  ......B$........
 9d001c40 08004228 efff4014 00000000 1400c28f  ..B(..@.........
 9d001c50 01004224 1400c2af 1400c28f 10004228  ..B$..........B(
 9d001c60 d6ff4014 00000000 1000c28f 01004224  ..@...........B$
 9d001c70 1000c2af 1000c28f 04004228 b6ff4014  ..........B(..@.
 9d001c80 00000000 21e8c003 2400bf8f 2000be8f  ....!...$... ...
 9d001c90 2800bd27 0800e003 00000000 f0ffbd27  (..'...........'
 9d001ca0 0c00beaf 21f0a003 1000c4af 1400c5af  ....!...........
 9d001cb0 1c000224 0000c2af 3f07400b 00000000  ...$....?.@.....
 9d001cc0 1000c28f 01004324 1000c3af 1400c48f  ......C$........
 9d001cd0 0000c38f 07186400 0f006430 009d033c  ......d...d0...<
 9d001ce0 f4286324 21188300 00006380 000043a0  .(c$!.....c...C.
 9d001cf0 0000c28f fcff4224 0000c2af 0000c28f  ......B$........
 9d001d00 efff4104 00000000 21e8c003 0c00be8f  ..A.....!.......
 9d001d10 1000bd27 0800e003 00000000 f0ffbd27  ...'...........'
 9d001d20 0c00beaf 0800b2af 0400b1af 0000b0af  ................
 9d001d30 21f0a003 1000c4af 21800000 1000c28f  !.......!.......
 9d001d40 03004228 15004010 00000000 1000c28f  ..B(..@.........
 9d001d50 0400401c 00000000 01000224 8a07400b  ..@........$..@.
 9d001d60 00000000 1000c38f 01000224 04006214  ...........$..b.
 9d001d70 00000000 02000224 8a07400b 00000000  .......$..@.....
 9d001d80 1000c38f 02000224 07006214 00000000  .......$..b.....
 9d001d90 03000224 8a07400b 00000000 1000c28f  ...$..@.........
 9d001da0 01004224 01005034 21900000 8607400b  ..B$..P4!.....@.
 9d001db0 00000000 03001124 7a07400b 00000000  .......$z.@.....
 9d001dc0 01001224 f4012002 1a001102 10100000  ...$.. .........
 9d001dd0 04004014 00000000 21900000 7f07400b  ..@.....!.....@.
 9d001de0 00000000 01003126 43101000 01004224  ......1&C.....B$
 9d001df0 2a105100 f2ff4010 00000000 01000224  *.Q...@........$
 9d001e00 04004216 00000000 21100002 8a07400b  ..B.....!.....@.
 9d001e10 00000000 02001026 01000224 e5ff4216  .......&...$..B.
 9d001e20 00000000 21100002 21e8c003 0c00be8f  ....!...!.......
 9d001e30 0800b28f 0400b18f 0000b08f 1000bd27  ...............'
 9d001e40 0800e003 00000000 f0ffbd27 0c00beaf  ...........'....
 9d001e50 0800b1af 0400b0af 21f0a003 1000c4af  ........!.......
 9d001e60 00a0023c 7c004224 170040a0 1000d18f  ...<|.B$..@.....
 9d001e70 1000c28f 19004104 00000000 1000c28f  ......A.........
 9d001e80 ffff4224 15004018 00000000 21800000  ..B$..@.....!...
 9d001e90 b007400b 00000000 01000426 009d023c  ..@........&...<
 9d001ea0 08294224 21100202 00004380 00a0023c  .)B$!.....C....<
 9d001eb0 7c004224 21108200 000043a0 01001026  |.B$!.....C....&
 9d001ec0 21100002 0c00422c f3ff4014 00000000  !.....B,..@.....
 9d001ed0 21800000 e707400b 00000000 1000c28f  !.....@.........
 9d001ee0 04004104 00000000 1000c28f 23100200  ..A.........#...
 9d001ef0 1000c2af 16001024 1000c38f 6666023c  .......$....ff.<
 9d001f00 67664234 18006200 10100000 83200200  gfB4..b...... ..
 9d001f10 c3170300 23108200 40100200 80200200  ....#...@.... ..
 9d001f20 21104400 23106200 ff004230 30004224  !.D.#.b...B00.B$
 9d001f30 ff004230 201c027c 00a0023c 7c004224  ..B0 ..|...<|.B$
 9d001f40 21100202 000043a0 1000c28f 6666033c  !.....C.....ff.<
 9d001f50 67666334 18004300 10180000 83180300  gfc4..C.........
 9d001f60 c3170200 23106200 1000c2af ffff1026  ....#.b........&
 9d001f70 1000c28f e0ff401c 00000000 07002106  ......@.......!.
 9d001f80 00000000 00a0023c 7c004224 21100202  .......<|.B$!...
 9d001f90 2d000324 000043a0 ffff1026 01000326  -..$..C....&...&
 9d001fa0 00a0023c 7c004224 21106200 21e8c003  ...<|.B$!.b.!...
 9d001fb0 0c00be8f 0800b18f 0400b08f 1000bd27  ...............'
 9d001fc0 0800e003 00000000 f0ffbd27 0c00beaf  ...........'....
 9d001fd0 21f0a003 88bf023c d0604234 0000428c  !......<.`B4..B.
 9d001fe0 02120200 0f004230 0000c2af 0000c38f  ......B0........
 9d001ff0 04000224 05006214 00000000 0000c28f  ...$..b.........
 9d002000 ffff4224 0c08400b 00000000 0000c38f  ..B$..@.........
 9d002010 08000224 05006214 00000000 0000c28f  ...$..b.........
 9d002020 fcff4224 0c08400b 00000000 0000c28f  ..B$..@.........
 9d002030 21e8c003 0c00be8f 1000bd27 0800e003  !..........'....
 9d002040 00000000 f0ffbd27 0c00beaf 21f0a003  .......'....!...
 9d002050 88bf023c d0604234 0000428c 42110200  ...<.`B4..B.B...
 9d002060 07004230 0000c2af 0000c28f 21e8c003  ..B0........!...
 9d002070 0c00be8f 1000bd27 0800e003 00000000  .......'........
 9d002080 0f000824 2448a800 0a002129 05002014  ...$$H....!).. .
 9d002090 00000000 37002a21 0800e003 00000000  ....7.*!........
 9d0020a0 00000000 30002921 21102001 0800e003  ....0.)!!. .....
 9d0020b0 00000000 00000000 fcffbd23 0000bfaf  ...........#....
 9d0020c0 e02e0924 0b008010 00000000 00000000  ...$............
 9d0020d0 ffff8420 00000824 faff0911 00000000  ... ...$........
 9d0020e0 00000000 01000821 3608400b 00000000  .......!6.@.....
 9d0020f0 00000000 0000bf8f 0400bd23 0800e003  ...........#....
 9d002100 00000000 00000000 fcffbd23 0000bfaf  ...........#....
 9d002110 fcffbd23 0000b0af fcffbd23 0000b1af  ...#.......#....
 9d002120 fcffbd23 0000b2af fcffbd23 0000b3af  ...#.......#....
 9d002130 00000c24 3a000d24 45000924 ff00af30  ...$:..$E..$...0
 9d002140 2008400f 00000000 00000000 21804000   .@.........!.@.
 9d002150 02290500 2008400f 00000000 00000000  .).. .@.........
 9d002160 21884000 02290500 2008400f 00000000  !.@..).. .@.....
 9d002170 00000000 21904000 02290500 2008400f  ....!.@..).. .@.
 9d002180 00000000 00000000 21984000 2008400f  ........!.@. .@.
 9d002190 00000000 00000000 58000924 1400e011  ........X..$....
 9d0021a0 00000000 000093a0 010092a0 02008da0  ................
 9d0021b0 030091a0 040090a0 05008ca0 0000b38f  ................
 9d0021c0 0400bd23 0000b28f 0400bd23 0000b18f  ...#.......#....
 9d0021d0 0400bd23 0000b08f 0400bd23 0000bf8f  ...#.......#....
 9d0021e0 0400bd23 0800e003 00000000 00000000  ...#............
 9d0021f0 000093a0 010092a0 02008da0 030091a0  ................
 9d002200 040090a0 050089a0 06008ca0 0000bf8f  ................
 9d002210 0400bd23 0800e003 00000000 00000000  ...#............
 9d002220 20606041 0800e003 00000000 00000000   ``A............
 9d002230 3023009d 3023009d 3023009d 3023009d  0#..0#..0#..0#..
 9d002240 3023009d 3023009d 3023009d 3023009d  0#..0#..0#..0#..
 9d002250 3023009d 3023009d 3023009d 3023009d  0#..0#..0#..0#..
 9d002260 3023009d 3023009d 3023009d 3023009d  0#..0#..0#..0#..
 9d002270 3023009d 3023009d 3023009d 3023009d  0#..0#..0#..0#..
 9d002280 3023009d 3023009d 3023009d 3023009d  0#..0#..0#..0#..
 9d002290 3023009d 3023009d 3023009d 3023009d  0#..0#..0#..0#..
 9d0022a0 3023009d 3023009d 3023009d 3023009d  0#..0#..0#..0#..
 9d0022b0 3023009d 3023009d 3023009d 3023009d  0#..0#..0#..0#..
 9d0022c0 3023009d 3023009d 3023009d 3023009d  0#..0#..0#..0#..
 9d0022d0 3023009d 3023009d 3023009d 3023009d  0#..0#..0#..0#..
 9d0022e0 3023009d 3023009d 3023009d 3023009d  0#..0#..0#..0#..
 9d0022f0 3023009d 3023009d 3023009d 3023009d  0#..0#..0#..0#..
 9d002300 3023009d 3023009d 3023009d 3023009d  0#..0#..0#..0#..
 9d002310 3023009d 3023009d 3023009d 3023009d  0#..0#..0#..0#..
 9d002320 3023009d 3023009d 3023009d 3023009d  0#..0#..0#..0#..
 9d002330 c0ffbd23 0000bfaf 0400a1af 0800a2af  ...#............
 9d002340 0c00a3af 1000a4af 1400a5af 1800a6af  ................
 9d002350 1c00a7af 2000a8af 2400a9af 2800aaaf  .... ...$...(...
 9d002360 2c00abaf 3000acaf 3400adaf 3800aeaf  ,...0...4...8...
 9d002370 3c00afaf e704400f 00000000 3c00af8f  <.....@.....<...
 9d002380 3800ae8f 3400ad8f 3000ac8f 2c00ab8f  8...4...0...,...
 9d002390 2800aa8f 2400a98f 2000a88f 1c00a78f  (...$... .......
 9d0023a0 1800a68f 1400a58f 1000a48f 0c00a38f  ................
 9d0023b0 0800a28f 0400a18f 0000bf8f 4000bd23  ............@..#
 9d0023c0 18000042 00000000 00000000 00000000  ...B............
 9d0023d0 00008430 0000a530 6004400f 00000000  ...0...0`.@.....
 9d0023e0 ffff0010 00000000                    ........        
Contents of section .header_info:
 9d0023e8 4c000000 ffffffff 0e030001 ffffffff  L...............
 9d0023f8 ffffffff 01000201 0010009d 0000009d  ................
 9d002408 00f00100 00f0019d 00100000 f02fc0bf  ............./..
 9d002418 10000000 000000a0 08000000 ffffffff  ................
 9d002428 2002009d 0002009d 20000000            ....... ...    
Contents of section .rodata:
 9d002434 00000000 00000000 00000000 00000000  ................
 9d002444 00000000 00000000 00000000 00000000  ................
 9d002454 00000000 00000000 00000000 00000000  ................
 9d002464 00000000 00000000 00000000 00000000  ................
 9d002474 00000000 00000000 00000000 00000000  ................
 9d002484 00000000 00000000 00000000 00000000  ................
 9d002494 00000000 00000000 00000000 00000000  ................
 9d0024a4 00000000 00000000 00000000 00000000  ................
 9d0024b4 00000000 00000000 00000000 00000000  ................
 9d0024c4 00000000 00000000 00000000 00000000  ................
 9d0024d4 00000000 00000000 00000000 00000000  ................
 9d0024e4 00000000 00000000 00000000 00000000  ................
 9d0024f4 00000000 00000000 00000000 00000000  ................
 9d002504 00000000 00000000 00000000 00000000  ................
 9d002514 00000000 00000000 00000000 00000000  ................
 9d002524 00000000 00000000 00000000 00000000  ................
 9d002534 00000000 00000000 0000005e 00000000  ...........^....
 9d002544 00000403 04030000 00247e24 247e2400  .........$~$$~$.
 9d002554 00244aff 52240000 00462610 08646200  .$J.R$...F&..db.
 9d002564 00344a4a 34205000 00000004 03000000  .4JJ4 P.........
 9d002574 0000007e 81000000 00000081 7e000000  ...~........~...
 9d002584 002a1c3e 1c2a0000 0008083e 08080000  .*.>.*.....>....
 9d002594 00000080 60000000 00080808 08080000  ....`...........
 9d0025a4 00000000 60000000 00402010 08040200  ....`....@ .....
 9d0025b4 003e4149 413e0000 0000427f 40000000  .>AIA>....B.@...
 9d0025c4 00006251 49460000 00002249 49360000  ..bQIF...."II6..
 9d0025d4 00000e08 7f080000 00002345 45390000  ..........#EE9..
 9d0025e4 00003e49 49320000 00000161 19070000  ..>II2.....a....
 9d0025f4 00003649 49360000 00000609 097e0000  ..6II6.......~..
 9d002604 00000066 00000000 00008066 00000000  ...f.......f....
 9d002614 00000814 22410000 00001414 14140000  ...."A..........
 9d002624 00004122 14080000 00020151 09060000  ..A".......Q....
 9d002634 001c2259 59520c00 00007e09 097e0000  .."YYR....~..~..
 9d002644 00007f49 49360000 00003e41 41220000  ...II6....>AA"..
 9d002654 00007f41 413e0000 00007f49 49410000  ...AA>.....IIA..
 9d002664 00007f09 09010000 00003e41 51320000  ..........>AQ2..
 9d002674 00007f08 087f0000 0000417f 41000000  ..........A.A...
 9d002684 00002040 403f0000 00007f08 14630000  .. @@?.......c..
 9d002694 00007f40 40400000 007f0204 027f0000  ...@@@..........
 9d0026a4 007f0608 307f0000 00003e41 413e0000  ....0.....>AA>..
 9d0026b4 00007f09 09060000 00003e41 617e4000  ..........>Aa~@.
 9d0026c4 00007f09 09760000 00002649 49320000  .....v....&II2..
 9d0026d4 0001017f 01010000 00003f40 403f0000  ..........?@@?..
 9d0026e4 001f2040 201f0000 003f4030 403f0000  .. @ ....?@0@?..
 9d0026f4 00007708 08770000 00030478 04030000  ..w..w.....x....
 9d002704 00007149 49470000 00007f41 41000000  ..qIIG.....AA...
 9d002714 00020408 10204000 00000041 417f0000  ..... @....AA...
 9d002724 00040201 02040000 00404040 40404000  .........@@@@@@.
 9d002734 00000102 04000000 00003048 28780000  ..........0H(x..
 9d002744 00007f48 48300000 00003048 48000000  ...HH0....0HH...
 9d002754 00003048 487f0000 00003058 58100000  ..0HH.....0XX...
 9d002764 00007e09 01020000 00005098 98700000  ..~.......P..p..
 9d002774 00007f08 08700000 0000007a 00000000  .....p.....z....
 9d002784 00004080 807a0000 00007f10 28480000  ..@..z......(H..
 9d002794 0000007f 00000000 00780810 08700000  .........x...p..
 9d0027a4 00007808 08700000 00003048 48300000  ..x..p....0HH0..
 9d0027b4 0000f828 28100000 00001028 28f80000  ...((......((...
 9d0027c4 00007008 08100000 00004854 54240000  ..p.......HTT$..
 9d0027d4 0000083c 48200000 00003840 20780000  ...<H ....8@ x..
 9d0027e4 00003840 38000000 00384020 40380000  ..8@8....8@ @8..
 9d0027f4 00004830 30480000 000018a0 a0780000  ..H00H.......x..
 9d002804 00006454 544c0000 0000081c 22410000  ..dTTL......"A..
 9d002814 0000007e 00000000 00004122 1c080000  ...~......A"....
 9d002824 00000402 04020000 00784442 44780000  .........xDBDx..
 9d002834 ffffffff ffff7fbb 445faa5d a3d7af5f  ........D_.]..._
 9d002844 af5faf5f df6faff7 3bedf2fe abfe01ff  ._._.o..;.......
 9d002854 ffff0fd3 6d3afd08 b24d3ac7 7ac5f2ad  ....m:...M:.z...
 9d002864 f2edbad7 28d729d6 23af5bd4 3fea956f  ....(.).#.[.?..o
 9d002874 ab54fdfc fefd7eb8 c334c916 e11bc413  .T....~..4......
 9d002884 a54a2492 48a25508 e219a650 a7d8a758  .J$.H.U....P...X
 9d002894 6a95a15f 875baf57 8e7b867f 86798679  j.._.[.W.{...y.y
 9d0028a4 843bc01b a44ab146 b845ba45 fe50afd9  .;...J.F.E.E.P..
 9d0028b4 4b54482f 49435420 6c616200 696e2043  KTH/ICT lab.in C
 9d0028c4 6f6d7075 74657200 456e6769 6e656572  omputer.Engineer
 9d0028d4 696e6700 57656c63 6f6d6521 00000000  ing.Welcome!....
 9d0028e4 41646472 00000000 44617461 00000000  Addr....Data....
 9d0028f4 30313233 34353637 38394142 43444546  0123456789ABCDEF
 9d002904 00000000 2d323134 37343833 36343800  ....-2147483648.
Contents of section .MIPS.abiflags:
 9d002918 00002002 01000003 00000000 00000000  .. .............
 9d002928 01000000 00000000                    ........        
Contents of section .data:
 a0000008 87d61200 57590000 74657874 2c206d6f  ....WY..text, mo
 a0000018 72652074 6578742c 20616e64 20657665  re text, and eve
 a0000028 6e206d6f 72652074 65787421 00000000  n more text!....
Contents of section .comment:
 0000 4743433a 2028474e 55292034 2e392e32  GCC: (GNU) 4.9.2
 0010 00                                   .               
Contents of section .gnu.attributes:
 0000 410f0000 00676e75 00010700 00000403  A....gnu........

Disassembly of section .reset:

9d001000 <_reset>:
9d001000:	3c1a9d00 	lui	k0,0x9d00
9d001004:	275a1010 	addiu	k0,k0,4112
9d001008:	03400008 	jr	k0
9d00100c:	00000000 	nop

Disassembly of section .image_ptr_table:

9d0000f8 <.image_ptr_table>:
9d0000f8:	9d000000 	0x9d000000
9d0000fc:	9d0023e8 	0x9d0023e8

Disassembly of section .app_excpt:

9d000180 <_gen_exception>:
9d000180:	401a7000 	mfc0	k0,c0_epc
9d000184:	235a0004 	addi	k0,k0,4
9d000188:	409a7000 	mtc0	k0,c0_epc
9d00018c:	42000018 	eret
9d000190:	00000000 	nop

9d000194 <_gen_exception>:
9d000194:	3c1a9d00 	lui	k0,0x9d00
9d000198:	275a0194 	addiu	k0,k0,404
9d00019c:	03400008 	jr	k0
9d0001a0:	00000000 	nop

Disassembly of section .vector_0:

9d000200 <__vector_0>:
9d000200:	3c1a9d00 	lui	k0,0x9d00
9d000204:	375a2230 	ori	k0,k0,0x2230
9d000208:	8f5a0000 	lw	k0,0(k0)
9d00020c:	03400008 	jr	k0
9d000210:	00000000 	nop
	...

Disassembly of section .vector_1:

9d000220 <__vector_1>:
9d000220:	3c1a9d00 	lui	k0,0x9d00
9d000224:	375a2230 	ori	k0,k0,0x2230
9d000228:	8f5a0004 	lw	k0,4(k0)
9d00022c:	03400008 	jr	k0
9d000230:	00000000 	nop
	...

Disassembly of section .vector_2:

9d000240 <__vector_2>:
9d000240:	3c1a9d00 	lui	k0,0x9d00
9d000244:	375a2230 	ori	k0,k0,0x2230
9d000248:	8f5a0008 	lw	k0,8(k0)
9d00024c:	03400008 	jr	k0
9d000250:	00000000 	nop
	...

Disassembly of section .vector_3:

9d000260 <__vector_3>:
9d000260:	3c1a9d00 	lui	k0,0x9d00
9d000264:	375a2230 	ori	k0,k0,0x2230
9d000268:	8f5a000c 	lw	k0,12(k0)
9d00026c:	03400008 	jr	k0
9d000270:	00000000 	nop
	...

Disassembly of section .vector_4:

9d000280 <__vector_4>:
9d000280:	3c1a9d00 	lui	k0,0x9d00
9d000284:	375a2230 	ori	k0,k0,0x2230
9d000288:	8f5a0010 	lw	k0,16(k0)
9d00028c:	03400008 	jr	k0
9d000290:	00000000 	nop
	...

Disassembly of section .vector_5:

9d0002a0 <__vector_5>:
9d0002a0:	3c1a9d00 	lui	k0,0x9d00
9d0002a4:	375a2230 	ori	k0,k0,0x2230
9d0002a8:	8f5a0014 	lw	k0,20(k0)
9d0002ac:	03400008 	jr	k0
9d0002b0:	00000000 	nop
	...

Disassembly of section .vector_6:

9d0002c0 <__vector_6>:
9d0002c0:	3c1a9d00 	lui	k0,0x9d00
9d0002c4:	375a2230 	ori	k0,k0,0x2230
9d0002c8:	8f5a0018 	lw	k0,24(k0)
9d0002cc:	03400008 	jr	k0
9d0002d0:	00000000 	nop
	...

Disassembly of section .vector_7:

9d0002e0 <__vector_7>:
9d0002e0:	3c1a9d00 	lui	k0,0x9d00
9d0002e4:	375a2230 	ori	k0,k0,0x2230
9d0002e8:	8f5a001c 	lw	k0,28(k0)
9d0002ec:	03400008 	jr	k0
9d0002f0:	00000000 	nop
	...

Disassembly of section .vector_8:

9d000300 <__vector_8>:
9d000300:	3c1a9d00 	lui	k0,0x9d00
9d000304:	375a2230 	ori	k0,k0,0x2230
9d000308:	8f5a0020 	lw	k0,32(k0)
9d00030c:	03400008 	jr	k0
9d000310:	00000000 	nop
	...

Disassembly of section .vector_9:

9d000320 <__vector_9>:
9d000320:	3c1a9d00 	lui	k0,0x9d00
9d000324:	375a2230 	ori	k0,k0,0x2230
9d000328:	8f5a0024 	lw	k0,36(k0)
9d00032c:	03400008 	jr	k0
9d000330:	00000000 	nop
	...

Disassembly of section .vector_10:

9d000340 <__vector_10>:
9d000340:	3c1a9d00 	lui	k0,0x9d00
9d000344:	375a2230 	ori	k0,k0,0x2230
9d000348:	8f5a0028 	lw	k0,40(k0)
9d00034c:	03400008 	jr	k0
9d000350:	00000000 	nop
	...

Disassembly of section .vector_11:

9d000360 <__vector_11>:
9d000360:	3c1a9d00 	lui	k0,0x9d00
9d000364:	375a2230 	ori	k0,k0,0x2230
9d000368:	8f5a002c 	lw	k0,44(k0)
9d00036c:	03400008 	jr	k0
9d000370:	00000000 	nop
	...

Disassembly of section .vector_12:

9d000380 <__vector_12>:
9d000380:	3c1a9d00 	lui	k0,0x9d00
9d000384:	375a2230 	ori	k0,k0,0x2230
9d000388:	8f5a0030 	lw	k0,48(k0)
9d00038c:	03400008 	jr	k0
9d000390:	00000000 	nop
	...

Disassembly of section .vector_13:

9d0003a0 <__vector_13>:
9d0003a0:	3c1a9d00 	lui	k0,0x9d00
9d0003a4:	375a2230 	ori	k0,k0,0x2230
9d0003a8:	8f5a0034 	lw	k0,52(k0)
9d0003ac:	03400008 	jr	k0
9d0003b0:	00000000 	nop
	...

Disassembly of section .vector_14:

9d0003c0 <__vector_14>:
9d0003c0:	3c1a9d00 	lui	k0,0x9d00
9d0003c4:	375a2230 	ori	k0,k0,0x2230
9d0003c8:	8f5a0038 	lw	k0,56(k0)
9d0003cc:	03400008 	jr	k0
9d0003d0:	00000000 	nop
	...

Disassembly of section .vector_15:

9d0003e0 <__vector_15>:
9d0003e0:	3c1a9d00 	lui	k0,0x9d00
9d0003e4:	375a2230 	ori	k0,k0,0x2230
9d0003e8:	8f5a003c 	lw	k0,60(k0)
9d0003ec:	03400008 	jr	k0
9d0003f0:	00000000 	nop
	...

Disassembly of section .vector_16:

9d000400 <__vector_16>:
9d000400:	3c1a9d00 	lui	k0,0x9d00
9d000404:	375a2230 	ori	k0,k0,0x2230
9d000408:	8f5a0040 	lw	k0,64(k0)
9d00040c:	03400008 	jr	k0
9d000410:	00000000 	nop
	...

Disassembly of section .vector_17:

9d000420 <__vector_17>:
9d000420:	3c1a9d00 	lui	k0,0x9d00
9d000424:	375a2230 	ori	k0,k0,0x2230
9d000428:	8f5a0044 	lw	k0,68(k0)
9d00042c:	03400008 	jr	k0
9d000430:	00000000 	nop
	...

Disassembly of section .vector_18:

9d000440 <__vector_18>:
9d000440:	3c1a9d00 	lui	k0,0x9d00
9d000444:	375a2230 	ori	k0,k0,0x2230
9d000448:	8f5a0048 	lw	k0,72(k0)
9d00044c:	03400008 	jr	k0
9d000450:	00000000 	nop
	...

Disassembly of section .vector_19:

9d000460 <__vector_19>:
9d000460:	3c1a9d00 	lui	k0,0x9d00
9d000464:	375a2230 	ori	k0,k0,0x2230
9d000468:	8f5a004c 	lw	k0,76(k0)
9d00046c:	03400008 	jr	k0
9d000470:	00000000 	nop
	...

Disassembly of section .vector_20:

9d000480 <__vector_20>:
9d000480:	3c1a9d00 	lui	k0,0x9d00
9d000484:	375a2230 	ori	k0,k0,0x2230
9d000488:	8f5a0050 	lw	k0,80(k0)
9d00048c:	03400008 	jr	k0
9d000490:	00000000 	nop
	...

Disassembly of section .vector_21:

9d0004a0 <__vector_21>:
9d0004a0:	3c1a9d00 	lui	k0,0x9d00
9d0004a4:	375a2230 	ori	k0,k0,0x2230
9d0004a8:	8f5a0054 	lw	k0,84(k0)
9d0004ac:	03400008 	jr	k0
9d0004b0:	00000000 	nop
	...

Disassembly of section .vector_22:

9d0004c0 <__vector_22>:
9d0004c0:	3c1a9d00 	lui	k0,0x9d00
9d0004c4:	375a2230 	ori	k0,k0,0x2230
9d0004c8:	8f5a0058 	lw	k0,88(k0)
9d0004cc:	03400008 	jr	k0
9d0004d0:	00000000 	nop
	...

Disassembly of section .vector_23:

9d0004e0 <__vector_23>:
9d0004e0:	3c1a9d00 	lui	k0,0x9d00
9d0004e4:	375a2230 	ori	k0,k0,0x2230
9d0004e8:	8f5a005c 	lw	k0,92(k0)
9d0004ec:	03400008 	jr	k0
9d0004f0:	00000000 	nop
	...

Disassembly of section .vector_24:

9d000500 <__vector_24>:
9d000500:	3c1a9d00 	lui	k0,0x9d00
9d000504:	375a2230 	ori	k0,k0,0x2230
9d000508:	8f5a0060 	lw	k0,96(k0)
9d00050c:	03400008 	jr	k0
9d000510:	00000000 	nop
	...

Disassembly of section .vector_25:

9d000520 <__vector_25>:
9d000520:	3c1a9d00 	lui	k0,0x9d00
9d000524:	375a2230 	ori	k0,k0,0x2230
9d000528:	8f5a0064 	lw	k0,100(k0)
9d00052c:	03400008 	jr	k0
9d000530:	00000000 	nop
	...

Disassembly of section .vector_26:

9d000540 <__vector_26>:
9d000540:	3c1a9d00 	lui	k0,0x9d00
9d000544:	375a2230 	ori	k0,k0,0x2230
9d000548:	8f5a0068 	lw	k0,104(k0)
9d00054c:	03400008 	jr	k0
9d000550:	00000000 	nop
	...

Disassembly of section .vector_27:

9d000560 <__vector_27>:
9d000560:	3c1a9d00 	lui	k0,0x9d00
9d000564:	375a2230 	ori	k0,k0,0x2230
9d000568:	8f5a006c 	lw	k0,108(k0)
9d00056c:	03400008 	jr	k0
9d000570:	00000000 	nop
	...

Disassembly of section .vector_28:

9d000580 <__vector_28>:
9d000580:	3c1a9d00 	lui	k0,0x9d00
9d000584:	375a2230 	ori	k0,k0,0x2230
9d000588:	8f5a0070 	lw	k0,112(k0)
9d00058c:	03400008 	jr	k0
9d000590:	00000000 	nop
	...

Disassembly of section .vector_29:

9d0005a0 <__vector_29>:
9d0005a0:	3c1a9d00 	lui	k0,0x9d00
9d0005a4:	375a2230 	ori	k0,k0,0x2230
9d0005a8:	8f5a0074 	lw	k0,116(k0)
9d0005ac:	03400008 	jr	k0
9d0005b0:	00000000 	nop
	...

Disassembly of section .vector_30:

9d0005c0 <__vector_30>:
9d0005c0:	3c1a9d00 	lui	k0,0x9d00
9d0005c4:	375a2230 	ori	k0,k0,0x2230
9d0005c8:	8f5a0078 	lw	k0,120(k0)
9d0005cc:	03400008 	jr	k0
9d0005d0:	00000000 	nop
	...

Disassembly of section .vector_31:

9d0005e0 <__vector_31>:
9d0005e0:	3c1a9d00 	lui	k0,0x9d00
9d0005e4:	375a2230 	ori	k0,k0,0x2230
9d0005e8:	8f5a007c 	lw	k0,124(k0)
9d0005ec:	03400008 	jr	k0
9d0005f0:	00000000 	nop
	...

Disassembly of section .vector_32:

9d000600 <__vector_32>:
9d000600:	3c1a9d00 	lui	k0,0x9d00
9d000604:	375a2230 	ori	k0,k0,0x2230
9d000608:	8f5a0080 	lw	k0,128(k0)
9d00060c:	03400008 	jr	k0
9d000610:	00000000 	nop
	...

Disassembly of section .vector_33:

9d000620 <__vector_33>:
9d000620:	3c1a9d00 	lui	k0,0x9d00
9d000624:	375a2230 	ori	k0,k0,0x2230
9d000628:	8f5a0084 	lw	k0,132(k0)
9d00062c:	03400008 	jr	k0
9d000630:	00000000 	nop
	...

Disassembly of section .vector_34:

9d000640 <__vector_34>:
9d000640:	3c1a9d00 	lui	k0,0x9d00
9d000644:	375a2230 	ori	k0,k0,0x2230
9d000648:	8f5a0088 	lw	k0,136(k0)
9d00064c:	03400008 	jr	k0
9d000650:	00000000 	nop
	...

Disassembly of section .vector_35:

9d000660 <__vector_35>:
9d000660:	3c1a9d00 	lui	k0,0x9d00
9d000664:	375a2230 	ori	k0,k0,0x2230
9d000668:	8f5a008c 	lw	k0,140(k0)
9d00066c:	03400008 	jr	k0
9d000670:	00000000 	nop
	...

Disassembly of section .vector_36:

9d000680 <__vector_36>:
9d000680:	3c1a9d00 	lui	k0,0x9d00
9d000684:	375a2230 	ori	k0,k0,0x2230
9d000688:	8f5a0090 	lw	k0,144(k0)
9d00068c:	03400008 	jr	k0
9d000690:	00000000 	nop
	...

Disassembly of section .vector_37:

9d0006a0 <__vector_37>:
9d0006a0:	3c1a9d00 	lui	k0,0x9d00
9d0006a4:	375a2230 	ori	k0,k0,0x2230
9d0006a8:	8f5a0094 	lw	k0,148(k0)
9d0006ac:	03400008 	jr	k0
9d0006b0:	00000000 	nop
	...

Disassembly of section .vector_38:

9d0006c0 <__vector_38>:
9d0006c0:	3c1a9d00 	lui	k0,0x9d00
9d0006c4:	375a2230 	ori	k0,k0,0x2230
9d0006c8:	8f5a0098 	lw	k0,152(k0)
9d0006cc:	03400008 	jr	k0
9d0006d0:	00000000 	nop
	...

Disassembly of section .vector_39:

9d0006e0 <__vector_39>:
9d0006e0:	3c1a9d00 	lui	k0,0x9d00
9d0006e4:	375a2230 	ori	k0,k0,0x2230
9d0006e8:	8f5a009c 	lw	k0,156(k0)
9d0006ec:	03400008 	jr	k0
9d0006f0:	00000000 	nop
	...

Disassembly of section .vector_40:

9d000700 <__vector_40>:
9d000700:	3c1a9d00 	lui	k0,0x9d00
9d000704:	375a2230 	ori	k0,k0,0x2230
9d000708:	8f5a00a0 	lw	k0,160(k0)
9d00070c:	03400008 	jr	k0
9d000710:	00000000 	nop
	...

Disassembly of section .vector_41:

9d000720 <__vector_41>:
9d000720:	3c1a9d00 	lui	k0,0x9d00
9d000724:	375a2230 	ori	k0,k0,0x2230
9d000728:	8f5a00a4 	lw	k0,164(k0)
9d00072c:	03400008 	jr	k0
9d000730:	00000000 	nop
	...

Disassembly of section .vector_42:

9d000740 <__vector_42>:
9d000740:	3c1a9d00 	lui	k0,0x9d00
9d000744:	375a2230 	ori	k0,k0,0x2230
9d000748:	8f5a00a8 	lw	k0,168(k0)
9d00074c:	03400008 	jr	k0
9d000750:	00000000 	nop
	...

Disassembly of section .vector_43:

9d000760 <__vector_43>:
9d000760:	3c1a9d00 	lui	k0,0x9d00
9d000764:	375a2230 	ori	k0,k0,0x2230
9d000768:	8f5a00ac 	lw	k0,172(k0)
9d00076c:	03400008 	jr	k0
9d000770:	00000000 	nop
	...

Disassembly of section .vector_44:

9d000780 <__vector_44>:
9d000780:	3c1a9d00 	lui	k0,0x9d00
9d000784:	375a2230 	ori	k0,k0,0x2230
9d000788:	8f5a00b0 	lw	k0,176(k0)
9d00078c:	03400008 	jr	k0
9d000790:	00000000 	nop
	...

Disassembly of section .vector_45:

9d0007a0 <__vector_45>:
9d0007a0:	3c1a9d00 	lui	k0,0x9d00
9d0007a4:	375a2230 	ori	k0,k0,0x2230
9d0007a8:	8f5a00b4 	lw	k0,180(k0)
9d0007ac:	03400008 	jr	k0
9d0007b0:	00000000 	nop
	...

Disassembly of section .vector_46:

9d0007c0 <__vector_46>:
9d0007c0:	3c1a9d00 	lui	k0,0x9d00
9d0007c4:	375a2230 	ori	k0,k0,0x2230
9d0007c8:	8f5a00b8 	lw	k0,184(k0)
9d0007cc:	03400008 	jr	k0
9d0007d0:	00000000 	nop
	...

Disassembly of section .vector_47:

9d0007e0 <__vector_47>:
9d0007e0:	3c1a9d00 	lui	k0,0x9d00
9d0007e4:	375a2230 	ori	k0,k0,0x2230
9d0007e8:	8f5a00bc 	lw	k0,188(k0)
9d0007ec:	03400008 	jr	k0
9d0007f0:	00000000 	nop
	...

Disassembly of section .vector_48:

9d000800 <__vector_48>:
9d000800:	3c1a9d00 	lui	k0,0x9d00
9d000804:	375a2230 	ori	k0,k0,0x2230
9d000808:	8f5a00c0 	lw	k0,192(k0)
9d00080c:	03400008 	jr	k0
9d000810:	00000000 	nop
	...

Disassembly of section .vector_49:

9d000820 <__vector_49>:
9d000820:	3c1a9d00 	lui	k0,0x9d00
9d000824:	375a2230 	ori	k0,k0,0x2230
9d000828:	8f5a00c4 	lw	k0,196(k0)
9d00082c:	03400008 	jr	k0
9d000830:	00000000 	nop
	...

Disassembly of section .vector_50:

9d000840 <__vector_50>:
9d000840:	3c1a9d00 	lui	k0,0x9d00
9d000844:	375a2230 	ori	k0,k0,0x2230
9d000848:	8f5a00c8 	lw	k0,200(k0)
9d00084c:	03400008 	jr	k0
9d000850:	00000000 	nop
	...

Disassembly of section .vector_51:

9d000860 <__vector_51>:
9d000860:	3c1a9d00 	lui	k0,0x9d00
9d000864:	375a2230 	ori	k0,k0,0x2230
9d000868:	8f5a00cc 	lw	k0,204(k0)
9d00086c:	03400008 	jr	k0
9d000870:	00000000 	nop
	...

Disassembly of section .vector_52:

9d000880 <__vector_52>:
9d000880:	3c1a9d00 	lui	k0,0x9d00
9d000884:	375a2230 	ori	k0,k0,0x2230
9d000888:	8f5a00d0 	lw	k0,208(k0)
9d00088c:	03400008 	jr	k0
9d000890:	00000000 	nop
	...

Disassembly of section .vector_53:

9d0008a0 <__vector_53>:
9d0008a0:	3c1a9d00 	lui	k0,0x9d00
9d0008a4:	375a2230 	ori	k0,k0,0x2230
9d0008a8:	8f5a00d4 	lw	k0,212(k0)
9d0008ac:	03400008 	jr	k0
9d0008b0:	00000000 	nop
	...

Disassembly of section .vector_54:

9d0008c0 <__vector_54>:
9d0008c0:	3c1a9d00 	lui	k0,0x9d00
9d0008c4:	375a2230 	ori	k0,k0,0x2230
9d0008c8:	8f5a00d8 	lw	k0,216(k0)
9d0008cc:	03400008 	jr	k0
9d0008d0:	00000000 	nop
	...

Disassembly of section .vector_55:

9d0008e0 <__vector_55>:
9d0008e0:	3c1a9d00 	lui	k0,0x9d00
9d0008e4:	375a2230 	ori	k0,k0,0x2230
9d0008e8:	8f5a00dc 	lw	k0,220(k0)
9d0008ec:	03400008 	jr	k0
9d0008f0:	00000000 	nop
	...

Disassembly of section .vector_56:

9d000900 <__vector_56>:
9d000900:	3c1a9d00 	lui	k0,0x9d00
9d000904:	375a2230 	ori	k0,k0,0x2230
9d000908:	8f5a00e0 	lw	k0,224(k0)
9d00090c:	03400008 	jr	k0
9d000910:	00000000 	nop
	...

Disassembly of section .vector_57:

9d000920 <__vector_57>:
9d000920:	3c1a9d00 	lui	k0,0x9d00
9d000924:	375a2230 	ori	k0,k0,0x2230
9d000928:	8f5a00e4 	lw	k0,228(k0)
9d00092c:	03400008 	jr	k0
9d000930:	00000000 	nop
	...

Disassembly of section .vector_58:

9d000940 <__vector_58>:
9d000940:	3c1a9d00 	lui	k0,0x9d00
9d000944:	375a2230 	ori	k0,k0,0x2230
9d000948:	8f5a00e8 	lw	k0,232(k0)
9d00094c:	03400008 	jr	k0
9d000950:	00000000 	nop
	...

Disassembly of section .vector_59:

9d000960 <__vector_59>:
9d000960:	3c1a9d00 	lui	k0,0x9d00
9d000964:	375a2230 	ori	k0,k0,0x2230
9d000968:	8f5a00ec 	lw	k0,236(k0)
9d00096c:	03400008 	jr	k0
9d000970:	00000000 	nop
	...

Disassembly of section .vector_60:

9d000980 <__vector_60>:
9d000980:	3c1a9d00 	lui	k0,0x9d00
9d000984:	375a2230 	ori	k0,k0,0x2230
9d000988:	8f5a00f0 	lw	k0,240(k0)
9d00098c:	03400008 	jr	k0
9d000990:	00000000 	nop
	...

Disassembly of section .vector_61:

9d0009a0 <__vector_61>:
9d0009a0:	3c1a9d00 	lui	k0,0x9d00
9d0009a4:	375a2230 	ori	k0,k0,0x2230
9d0009a8:	8f5a00f4 	lw	k0,244(k0)
9d0009ac:	03400008 	jr	k0
9d0009b0:	00000000 	nop
	...

Disassembly of section .vector_62:

9d0009c0 <__vector_62>:
9d0009c0:	3c1a9d00 	lui	k0,0x9d00
9d0009c4:	375a2230 	ori	k0,k0,0x2230
9d0009c8:	8f5a00f8 	lw	k0,248(k0)
9d0009cc:	03400008 	jr	k0
9d0009d0:	00000000 	nop
	...

Disassembly of section .vector_63:

9d0009e0 <__vector_63>:
9d0009e0:	3c1a9d00 	lui	k0,0x9d00
9d0009e4:	375a2230 	ori	k0,k0,0x2230
9d0009e8:	8f5a00fc 	lw	k0,252(k0)
9d0009ec:	03400008 	jr	k0
9d0009f0:	00000000 	nop

Disassembly of section .startup:

9d001010 <_startup>:
9d001010:	401a6000 	mfc0	k0,c0_status
9d001014:	7f5a04c0 	ext	k0,k0,0x13,0x1
9d001018:	13400005 	beqz	k0,9d001030 <_no_nmi>
9d00101c:	00000000 	nop
9d001020:	3c1a9d00 	lui	k0,0x9d00
9d001024:	275a1348 	addiu	k0,k0,4936
9d001028:	03400008 	jr	k0
9d00102c:	00000000 	nop

9d001030 <_no_nmi>:
9d001030:	3c1da000 	lui	sp,0xa000
9d001034:	27bd4000 	addiu	sp,sp,16384
9d001038:	3c1ca000 	lui	gp,0xa000
9d00103c:	279c0038 	addiu	gp,gp,56
9d001040:	40096002 	mfc0	t1,c0_srsctl
9d001044:	01205820 	add	t3,t1,zero
9d001048:	7d2a1e80 	ext	t2,t1,0x1a,0x4
9d00104c:	7d494984 	ins	t1,t2,0x6,0x4
9d001050:	40896002 	mtc0	t1,c0_srsctl
9d001054:	000000c0 	ehb
9d001058:	41dce000 	wrpgpr	gp,gp
9d00105c:	408b6002 	mtc0	t3,c0_srsctl
9d001060:	000000c0 	ehb
9d001064:	3c089d00 	lui	t0,0x9d00
9d001068:	2508135c 	addiu	t0,t0,4956
9d00106c:	0100f809 	jalr	t0
9d001070:	00000000 	nop
9d001074:	3c08a000 	lui	t0,0xa000
9d001078:	25080038 	addiu	t0,t0,56
9d00107c:	3c09a000 	lui	t1,0xa000
9d001080:	25290094 	addiu	t1,t1,148
9d001084:	10000006 	b	9d0010a0 <_bss_check>
9d001088:	00000000 	nop

9d00108c <_bss_init>:
9d00108c:	ad000000 	sw	zero,0(t0)
9d001090:	ad000004 	sw	zero,4(t0)
9d001094:	ad000008 	sw	zero,8(t0)
9d001098:	ad00000c 	sw	zero,12(t0)
9d00109c:	25080010 	addiu	t0,t0,16

9d0010a0 <_bss_check>:
9d0010a0:	0109082b 	sltu	at,t0,t1
9d0010a4:	1420fff9 	bnez	at,9d00108c <_bss_init>
9d0010a8:	00000000 	nop
9d0010ac:	3c089d00 	lui	t0,0x9d00
9d0010b0:	25082930 	addiu	t0,t0,10544
9d0010b4:	3c09a000 	lui	t1,0xa000
9d0010b8:	25290008 	addiu	t1,t1,8
9d0010bc:	3c0aa000 	lui	t2,0xa000
9d0010c0:	254a0038 	addiu	t2,t2,56
9d0010c4:	10000005 	b	9d0010dc <_init_check>
9d0010c8:	00000000 	nop

9d0010cc <_init_data>:
9d0010cc:	8d0b0000 	lw	t3,0(t0)
9d0010d0:	ad2b0000 	sw	t3,0(t1)
9d0010d4:	25080004 	addiu	t0,t0,4
9d0010d8:	25290004 	addiu	t1,t1,4

9d0010dc <_init_check>:
9d0010dc:	012a082b 	sltu	at,t1,t2
9d0010e0:	1420fffa 	bnez	at,9d0010cc <_init_data>
9d0010e4:	00000000 	nop
9d0010e8:	40804800 	mtc0	zero,c0_count
9d0010ec:	240affff 	li	t2,-1
9d0010f0:	408a5800 	mtc0	t2,c0_compare
9d0010f4:	3c099d00 	lui	t1,0x9d00
9d0010f8:	25290000 	addiu	t1,t1,0
9d0010fc:	40897801 	mtc0	t1,c0_ebase
9d001100:	3c090000 	lui	t1,0x0
9d001104:	25290001 	addiu	t1,t1,1
9d001108:	240a0000 	li	t2,0
9d00110c:	7d2a4944 	ins	t2,t1,0x5,0x5
9d001110:	408a6001 	mtc0	t2,c0_intctl
9d001114:	3c090080 	lui	t1,0x80
9d001118:	40896800 	mtc0	t1,c0_cause
9d00111c:	40088000 	mfc0	t0,c0_config
9d001120:	7d090580 	ext	t1,t0,0x16,0x1
9d001124:	00094c40 	sll	t1,t1,0x11
9d001128:	40086000 	mfc0	t0,c0_status
9d00112c:	3c010058 	lui	at,0x58
9d001130:	01014024 	and	t0,t0,at
9d001134:	01284025 	or	t0,t1,t0
9d001138:	40886000 	mtc0	t0,c0_status
9d00113c:	3c089d00 	lui	t0,0x9d00
9d001140:	2508137c 	addiu	t0,t0,4988
9d001144:	0100f809 	jalr	t0
9d001148:	00000000 	nop
9d00114c:	40086000 	mfc0	t0,c0_status
9d001150:	3c01ffbf 	lui	at,0xffbf
9d001154:	3421ffff 	ori	at,at,0xffff
9d001158:	01014024 	and	t0,t0,at
9d00115c:	40886000 	mtc0	t0,c0_status
9d001160:	30840000 	andi	a0,a0,0x0
9d001164:	30a50000 	andi	a1,a1,0x0
9d001168:	3c089d00 	lui	t0,0x9d00
9d00116c:	250823d0 	addiu	t0,t0,9168
9d001170:	01000008 	jr	t0
9d001174:	00000000 	nop

Disassembly of section .text:

9d001180 <main>:
9d001180:	27bdffe8 	addiu	sp,sp,-24
9d001184:	afbf0014 	sw	ra,20(sp)
9d001188:	afbe0010 	sw	s8,16(sp)
9d00118c:	03a0f021 	move	s8,sp
9d001190:	3c02bf80 	lui	v0,0xbf80
9d001194:	3442f004 	ori	v0,v0,0xf004
9d001198:	3c030010 	lui	v1,0x10
9d00119c:	ac430000 	sw	v1,0(v0)
9d0011a0:	3c02bf80 	lui	v0,0xbf80
9d0011a4:	3442f008 	ori	v0,v0,0xf008
9d0011a8:	3c030008 	lui	v1,0x8
9d0011ac:	ac430000 	sw	v1,0(v0)
9d0011b0:	3c02bf80 	lui	v0,0xbf80
9d0011b4:	34429060 	ori	v0,v0,0x9060
9d0011b8:	3403ffff 	li	v1,0xffff
9d0011bc:	ac430000 	sw	v1,0(v0)
9d0011c0:	3c02bf88 	lui	v0,0xbf88
9d0011c4:	34426130 	ori	v0,v0,0x6130
9d0011c8:	ac400000 	sw	zero,0(v0)
9d0011cc:	3c02bf88 	lui	v0,0xbf88
9d0011d0:	34426104 	ori	v0,v0,0x6104
9d0011d4:	240300ff 	li	v1,255
9d0011d8:	ac430000 	sw	v1,0(v0)
9d0011dc:	3c02bf88 	lui	v0,0xbf88
9d0011e0:	34426110 	ori	v0,v0,0x6110
9d0011e4:	ac400000 	sw	zero,0(v0)
9d0011e8:	3c02bf88 	lui	v0,0xbf88
9d0011ec:	34426150 	ori	v0,v0,0x6150
9d0011f0:	3403ffff 	li	v1,0xffff
9d0011f4:	ac430000 	sw	v1,0(v0)
9d0011f8:	3c02bf88 	lui	v0,0xbf88
9d0011fc:	34426190 	ori	v0,v0,0x6190
9d001200:	24030200 	li	v1,512
9d001204:	ac430000 	sw	v1,0(v0)
9d001208:	3c02bf88 	lui	v0,0xbf88
9d00120c:	34426170 	ori	v0,v0,0x6170
9d001210:	ac400000 	sw	zero,0(v0)
9d001214:	3c02bf88 	lui	v0,0xbf88
9d001218:	344261b0 	ori	v0,v0,0x61b0
9d00121c:	ac400000 	sw	zero,0(v0)
9d001220:	3c02bf88 	lui	v0,0xbf88
9d001224:	34426144 	ori	v0,v0,0x6144
9d001228:	24030070 	li	v1,112
9d00122c:	ac430000 	sw	v1,0(v0)
9d001230:	3c02bf88 	lui	v0,0xbf88
9d001234:	34426184 	ori	v0,v0,0x6184
9d001238:	24030200 	li	v1,512
9d00123c:	ac430000 	sw	v1,0(v0)
9d001240:	3c02bf88 	lui	v0,0xbf88
9d001244:	344260c8 	ori	v0,v0,0x60c8
9d001248:	24030100 	li	v1,256
9d00124c:	ac430000 	sw	v1,0(v0)
9d001250:	3c02bf88 	lui	v0,0xbf88
9d001254:	34426148 	ori	v0,v0,0x6148
9d001258:	24030002 	li	v1,2
9d00125c:	ac430000 	sw	v1,0(v0)
9d001260:	3c02bf80 	lui	v0,0xbf80
9d001264:	34425a00 	ori	v0,v0,0x5a00
9d001268:	ac400000 	sw	zero,0(v0)
9d00126c:	3c02bf80 	lui	v0,0xbf80
9d001270:	34425a30 	ori	v0,v0,0x5a30
9d001274:	24030004 	li	v1,4
9d001278:	ac430000 	sw	v1,0(v0)
9d00127c:	3c02bf80 	lui	v0,0xbf80
9d001280:	34425a14 	ori	v0,v0,0x5a14
9d001284:	24030040 	li	v1,64
9d001288:	ac430000 	sw	v1,0(v0)
9d00128c:	3c02bf80 	lui	v0,0xbf80
9d001290:	34425a08 	ori	v0,v0,0x5a08
9d001294:	24030040 	li	v1,64
9d001298:	ac430000 	sw	v1,0(v0)
9d00129c:	3c02bf80 	lui	v0,0xbf80
9d0012a0:	34425a08 	ori	v0,v0,0x5a08
9d0012a4:	24030020 	li	v1,32
9d0012a8:	ac430000 	sw	v1,0(v0)
9d0012ac:	3c02bf80 	lui	v0,0xbf80
9d0012b0:	34425a08 	ori	v0,v0,0x5a08
9d0012b4:	34038000 	li	v1,0x8000
9d0012b8:	ac430000 	sw	v1,0(v0)
9d0012bc:	0f4005f6 	jal	9d0017d8 <display_init>
9d0012c0:	00000000 	nop
9d0012c4:	00002021 	move	a0,zero
9d0012c8:	3c029d00 	lui	v0,0x9d00
9d0012cc:	244528b4 	addiu	a1,v0,10420
9d0012d0:	0f400643 	jal	9d00190c <display_string>
9d0012d4:	00000000 	nop
9d0012d8:	24040001 	li	a0,1
9d0012dc:	3c029d00 	lui	v0,0x9d00
9d0012e0:	244528c0 	addiu	a1,v0,10432
9d0012e4:	0f400643 	jal	9d00190c <display_string>
9d0012e8:	00000000 	nop
9d0012ec:	24040002 	li	a0,2
9d0012f0:	3c029d00 	lui	v0,0x9d00
9d0012f4:	244528cc 	addiu	a1,v0,10444
9d0012f8:	0f400643 	jal	9d00190c <display_string>
9d0012fc:	00000000 	nop
9d001300:	24040003 	li	a0,3
9d001304:	3c029d00 	lui	v0,0x9d00
9d001308:	244528d8 	addiu	a1,v0,10456
9d00130c:	0f400643 	jal	9d00190c <display_string>
9d001310:	00000000 	nop
9d001314:	0f4006cf 	jal	9d001b3c <display_update>
9d001318:	00000000 	nop
9d00131c:	24040060 	li	a0,96
9d001320:	3c029d00 	lui	v0,0x9d00
9d001324:	24452834 	addiu	a1,v0,10292
9d001328:	0f400681 	jal	9d001a04 <display_image>
9d00132c:	00000000 	nop
9d001330:	0f400513 	jal	9d00144c <labinit>
9d001334:	00000000 	nop
9d001338:	0f40053e 	jal	9d0014f8 <labwork>
9d00133c:	00000000 	nop
9d001340:	0b4004ce 	j	9d001338 <main+0x1b8>
9d001344:	00000000 	nop

9d001348 <_nmi_handler>:
9d001348:	27bdfff8 	addiu	sp,sp,-8
9d00134c:	afbe0004 	sw	s8,4(sp)
9d001350:	03a0f021 	move	s8,sp
9d001354:	0b4004d5 	j	9d001354 <_nmi_handler+0xc>
9d001358:	00000000 	nop

9d00135c <_on_reset>:
9d00135c:	27bdfff8 	addiu	sp,sp,-8
9d001360:	afbe0004 	sw	s8,4(sp)
9d001364:	03a0f021 	move	s8,sp
9d001368:	03c0e821 	move	sp,s8
9d00136c:	8fbe0004 	lw	s8,4(sp)
9d001370:	27bd0008 	addiu	sp,sp,8
9d001374:	03e00008 	jr	ra
9d001378:	00000000 	nop

9d00137c <_on_bootstrap>:
9d00137c:	27bdfff8 	addiu	sp,sp,-8
9d001380:	afbe0004 	sw	s8,4(sp)
9d001384:	03a0f021 	move	s8,sp
9d001388:	03c0e821 	move	sp,s8
9d00138c:	8fbe0004 	lw	s8,4(sp)
9d001390:	27bd0008 	addiu	sp,sp,8
9d001394:	03e00008 	jr	ra
9d001398:	00000000 	nop

9d00139c <user_isr>:
9d00139c:	27bdffe8 	addiu	sp,sp,-24
9d0013a0:	afbf0014 	sw	ra,20(sp)
9d0013a4:	afbe0010 	sw	s8,16(sp)
9d0013a8:	03a0f021 	move	s8,sp
9d0013ac:	3c02bf88 	lui	v0,0xbf88
9d0013b0:	34421030 	ori	v0,v0,0x1030
9d0013b4:	ac400000 	sw	zero,0(v0)
9d0013b8:	3c02a000 	lui	v0,0xa000
9d0013bc:	8c420078 	lw	v0,120(v0)
9d0013c0:	24430001 	addiu	v1,v0,1
9d0013c4:	3c02a000 	lui	v0,0xa000
9d0013c8:	ac430078 	sw	v1,120(v0)
9d0013cc:	3c02a000 	lui	v0,0xa000
9d0013d0:	8c430078 	lw	v1,120(v0)
9d0013d4:	2402000a 	li	v0,10
9d0013d8:	14620015 	bne	v1,v0,9d001430 <user_isr+0x94>
9d0013dc:	00000000 	nop
9d0013e0:	3c02a000 	lui	v0,0xa000
9d0013e4:	8c43000c 	lw	v1,12(v0)
9d0013e8:	3c02a000 	lui	v0,0xa000
9d0013ec:	24440010 	addiu	a0,v0,16
9d0013f0:	00602821 	move	a1,v1
9d0013f4:	0f400842 	jal	9d002108 <time2string>
9d0013f8:	00000000 	nop
9d0013fc:	24040003 	li	a0,3
9d001400:	3c02a000 	lui	v0,0xa000
9d001404:	24450010 	addiu	a1,v0,16
9d001408:	0f400643 	jal	9d00190c <display_string>
9d00140c:	00000000 	nop
9d001410:	0f4006cf 	jal	9d001b3c <display_update>
9d001414:	00000000 	nop
9d001418:	3c02a000 	lui	v0,0xa000
9d00141c:	2444000c 	addiu	a0,v0,12
9d001420:	0f40056e 	jal	9d0015b8 <tick>
9d001424:	00000000 	nop
9d001428:	3c02a000 	lui	v0,0xa000
9d00142c:	ac400078 	sw	zero,120(v0)
9d001430:	00000000 	nop
9d001434:	03c0e821 	move	sp,s8
9d001438:	8fbf0014 	lw	ra,20(sp)
9d00143c:	8fbe0010 	lw	s8,16(sp)
9d001440:	27bd0018 	addiu	sp,sp,24
9d001444:	03e00008 	jr	ra
9d001448:	00000000 	nop

9d00144c <labinit>:
9d00144c:	27bdffe0 	addiu	sp,sp,-32
9d001450:	afbf001c 	sw	ra,28(sp)
9d001454:	afbe0018 	sw	s8,24(sp)
9d001458:	03a0f021 	move	s8,sp
9d00145c:	3c02bf88 	lui	v0,0xbf88
9d001460:	34426100 	ori	v0,v0,0x6100
9d001464:	afc20010 	sw	v0,16(s8)
9d001468:	3c02bf88 	lui	v0,0xbf88
9d00146c:	344260c0 	ori	v0,v0,0x60c0
9d001470:	24030fe0 	li	v1,4064
9d001474:	ac430000 	sw	v1,0(v0)
9d001478:	3c02bf80 	lui	v0,0xbf80
9d00147c:	34420820 	ori	v0,v0,0x820
9d001480:	24037a12 	li	v1,31250
9d001484:	ac430000 	sw	v1,0(v0)
9d001488:	3c02bf80 	lui	v0,0xbf80
9d00148c:	34420810 	ori	v0,v0,0x810
9d001490:	ac400000 	sw	zero,0(v0)
9d001494:	3c02bf80 	lui	v0,0xbf80
9d001498:	34420800 	ori	v0,v0,0x800
9d00149c:	24030070 	li	v1,112
9d0014a0:	ac430000 	sw	v1,0(v0)
9d0014a4:	3c02bf88 	lui	v0,0xbf88
9d0014a8:	34421060 	ori	v0,v0,0x1060
9d0014ac:	24030100 	li	v1,256
9d0014b0:	ac430000 	sw	v1,0(v0)
9d0014b4:	3c02bf88 	lui	v0,0xbf88
9d0014b8:	344210b0 	ori	v0,v0,0x10b0
9d0014bc:	24030004 	li	v1,4
9d0014c0:	ac430000 	sw	v1,0(v0)
9d0014c4:	3c02bf80 	lui	v0,0xbf80
9d0014c8:	34420808 	ori	v0,v0,0x808
9d0014cc:	34038000 	li	v1,0x8000
9d0014d0:	ac430000 	sw	v1,0(v0)
9d0014d4:	0f400888 	jal	9d002220 <enable_interrupt>
9d0014d8:	00000000 	nop
9d0014dc:	00000000 	nop
9d0014e0:	03c0e821 	move	sp,s8
9d0014e4:	8fbf001c 	lw	ra,28(sp)
9d0014e8:	8fbe0018 	lw	s8,24(sp)
9d0014ec:	27bd0020 	addiu	sp,sp,32
9d0014f0:	03e00008 	jr	ra
9d0014f4:	00000000 	nop

9d0014f8 <labwork>:
9d0014f8:	27bdffe8 	addiu	sp,sp,-24
9d0014fc:	afbf0014 	sw	ra,20(sp)
9d001500:	afbe0010 	sw	s8,16(sp)
9d001504:	03a0f021 	move	s8,sp
9d001508:	3c02a000 	lui	v0,0xa000
9d00150c:	8c420008 	lw	v0,8(v0)
9d001510:	00402021 	move	a0,v0
9d001514:	0f400747 	jal	9d001d1c <nextprime>
9d001518:	00000000 	nop
9d00151c:	00401821 	move	v1,v0
9d001520:	3c02a000 	lui	v0,0xa000
9d001524:	ac430008 	sw	v1,8(v0)
9d001528:	3c02a000 	lui	v0,0xa000
9d00152c:	8c420008 	lw	v0,8(v0)
9d001530:	00402021 	move	a0,v0
9d001534:	0f400792 	jal	9d001e48 <itoaconv>
9d001538:	00000000 	nop
9d00153c:	00002021 	move	a0,zero
9d001540:	00402821 	move	a1,v0
9d001544:	0f400643 	jal	9d00190c <display_string>
9d001548:	00000000 	nop
9d00154c:	0f4006cf 	jal	9d001b3c <display_update>
9d001550:	00000000 	nop
9d001554:	03c0e821 	move	sp,s8
9d001558:	8fbf0014 	lw	ra,20(sp)
9d00155c:	8fbe0010 	lw	s8,16(sp)
9d001560:	27bd0018 	addiu	sp,sp,24
9d001564:	03e00008 	jr	ra
9d001568:	00000000 	nop

9d00156c <quicksleep>:
9d00156c:	27bdfff0 	addiu	sp,sp,-16
9d001570:	afbe000c 	sw	s8,12(sp)
9d001574:	03a0f021 	move	s8,sp
9d001578:	afc40010 	sw	a0,16(s8)
9d00157c:	8fc20010 	lw	v0,16(s8)
9d001580:	afc20000 	sw	v0,0(s8)
9d001584:	0b400566 	j	9d001598 <quicksleep+0x2c>
9d001588:	00000000 	nop
9d00158c:	8fc20000 	lw	v0,0(s8)
9d001590:	2442ffff 	addiu	v0,v0,-1
9d001594:	afc20000 	sw	v0,0(s8)
9d001598:	8fc20000 	lw	v0,0(s8)
9d00159c:	1c40fffb 	bgtz	v0,9d00158c <quicksleep+0x20>
9d0015a0:	00000000 	nop
9d0015a4:	03c0e821 	move	sp,s8
9d0015a8:	8fbe000c 	lw	s8,12(sp)
9d0015ac:	27bd0010 	addiu	sp,sp,16
9d0015b0:	03e00008 	jr	ra
9d0015b4:	00000000 	nop

9d0015b8 <tick>:
9d0015b8:	27bdfff8 	addiu	sp,sp,-8
9d0015bc:	afbe0004 	sw	s8,4(sp)
9d0015c0:	afb00000 	sw	s0,0(sp)
9d0015c4:	03a0f021 	move	s8,sp
9d0015c8:	afc40008 	sw	a0,8(s8)
9d0015cc:	8fc20008 	lw	v0,8(s8)
9d0015d0:	8c500000 	lw	s0,0(v0)
9d0015d4:	26100001 	addiu	s0,s0,1
9d0015d8:	3202000f 	andi	v0,s0,0xf
9d0015dc:	2c42000a 	sltiu	v0,v0,10
9d0015e0:	14400002 	bnez	v0,9d0015ec <tick+0x34>
9d0015e4:	00000000 	nop
9d0015e8:	26100006 	addiu	s0,s0,6
9d0015ec:	320200f0 	andi	v0,s0,0xf0
9d0015f0:	2c420060 	sltiu	v0,v0,96
9d0015f4:	14400002 	bnez	v0,9d001600 <tick+0x48>
9d0015f8:	00000000 	nop
9d0015fc:	261000a0 	addiu	s0,s0,160
9d001600:	32020f00 	andi	v0,s0,0xf00
9d001604:	2c420a00 	sltiu	v0,v0,2560
9d001608:	14400002 	bnez	v0,9d001614 <tick+0x5c>
9d00160c:	00000000 	nop
9d001610:	26100600 	addiu	s0,s0,1536
9d001614:	3202f000 	andi	v0,s0,0xf000
9d001618:	2c426000 	sltiu	v0,v0,24576
9d00161c:	14400003 	bnez	v0,9d00162c <tick+0x74>
9d001620:	00000000 	nop
9d001624:	3402a000 	li	v0,0xa000
9d001628:	02028021 	addu	s0,s0,v0
9d00162c:	3c02000f 	lui	v0,0xf
9d001630:	02021824 	and	v1,s0,v0
9d001634:	3c02000a 	lui	v0,0xa
9d001638:	0062102b 	sltu	v0,v1,v0
9d00163c:	14400003 	bnez	v0,9d00164c <tick+0x94>
9d001640:	00000000 	nop
9d001644:	3c020006 	lui	v0,0x6
9d001648:	02028021 	addu	s0,s0,v0
9d00164c:	3c0200ff 	lui	v0,0xff
9d001650:	02021824 	and	v1,s0,v0
9d001654:	3c020024 	lui	v0,0x24
9d001658:	0062102b 	sltu	v0,v1,v0
9d00165c:	14400003 	bnez	v0,9d00166c <tick+0xb4>
9d001660:	00000000 	nop
9d001664:	3c0200dc 	lui	v0,0xdc
9d001668:	02028021 	addu	s0,s0,v0
9d00166c:	3c020f00 	lui	v0,0xf00
9d001670:	02021824 	and	v1,s0,v0
9d001674:	3c020a00 	lui	v0,0xa00
9d001678:	0062102b 	sltu	v0,v1,v0
9d00167c:	14400003 	bnez	v0,9d00168c <tick+0xd4>
9d001680:	00000000 	nop
9d001684:	3c020600 	lui	v0,0x600
9d001688:	02028021 	addu	s0,s0,v0
9d00168c:	3c02f000 	lui	v0,0xf000
9d001690:	02021824 	and	v1,s0,v0
9d001694:	3c02a000 	lui	v0,0xa000
9d001698:	0062102b 	sltu	v0,v1,v0
9d00169c:	14400002 	bnez	v0,9d0016a8 <tick+0xf0>
9d0016a0:	00000000 	nop
9d0016a4:	00008021 	move	s0,zero
9d0016a8:	8fc20008 	lw	v0,8(s8)
9d0016ac:	ac500000 	sw	s0,0(v0)
9d0016b0:	03c0e821 	move	sp,s8
9d0016b4:	8fbe0004 	lw	s8,4(sp)
9d0016b8:	8fb00000 	lw	s0,0(sp)
9d0016bc:	27bd0008 	addiu	sp,sp,8
9d0016c0:	03e00008 	jr	ra
9d0016c4:	00000000 	nop

9d0016c8 <display_debug>:
9d0016c8:	27bdffe8 	addiu	sp,sp,-24
9d0016cc:	afbf0014 	sw	ra,20(sp)
9d0016d0:	afbe0010 	sw	s8,16(sp)
9d0016d4:	03a0f021 	move	s8,sp
9d0016d8:	afc40018 	sw	a0,24(s8)
9d0016dc:	24040001 	li	a0,1
9d0016e0:	3c029d00 	lui	v0,0x9d00
9d0016e4:	244528e4 	addiu	a1,v0,10468
9d0016e8:	0f400643 	jal	9d00190c <display_string>
9d0016ec:	00000000 	nop
9d0016f0:	24040002 	li	a0,2
9d0016f4:	3c029d00 	lui	v0,0x9d00
9d0016f8:	244528ec 	addiu	a1,v0,10476
9d0016fc:	0f400643 	jal	9d00190c <display_string>
9d001700:	00000000 	nop
9d001704:	8fc30018 	lw	v1,24(s8)
9d001708:	3c02a000 	lui	v0,0xa000
9d00170c:	2444004e 	addiu	a0,v0,78
9d001710:	00602821 	move	a1,v1
9d001714:	0f400727 	jal	9d001c9c <num32asc>
9d001718:	00000000 	nop
9d00171c:	8fc20018 	lw	v0,24(s8)
9d001720:	8c430000 	lw	v1,0(v0)
9d001724:	3c02a000 	lui	v0,0xa000
9d001728:	2444005e 	addiu	a0,v0,94
9d00172c:	00602821 	move	a1,v1
9d001730:	0f400727 	jal	9d001c9c <num32asc>
9d001734:	00000000 	nop
9d001738:	0f4006cf 	jal	9d001b3c <display_update>
9d00173c:	00000000 	nop
9d001740:	03c0e821 	move	sp,s8
9d001744:	8fbf0014 	lw	ra,20(sp)
9d001748:	8fbe0010 	lw	s8,16(sp)
9d00174c:	27bd0018 	addiu	sp,sp,24
9d001750:	03e00008 	jr	ra
9d001754:	00000000 	nop

9d001758 <spi_send_recv>:
9d001758:	27bdfff8 	addiu	sp,sp,-8
9d00175c:	afbe0004 	sw	s8,4(sp)
9d001760:	03a0f021 	move	s8,sp
9d001764:	00801021 	move	v0,a0
9d001768:	a3c20008 	sb	v0,8(s8)
9d00176c:	00000000 	nop
9d001770:	3c02bf80 	lui	v0,0xbf80
9d001774:	34425a10 	ori	v0,v0,0x5a10
9d001778:	8c420000 	lw	v0,0(v0)
9d00177c:	30420008 	andi	v0,v0,0x8
9d001780:	1040fffb 	beqz	v0,9d001770 <spi_send_recv+0x18>
9d001784:	00000000 	nop
9d001788:	3c02bf80 	lui	v0,0xbf80
9d00178c:	34425a20 	ori	v0,v0,0x5a20
9d001790:	93c30008 	lbu	v1,8(s8)
9d001794:	ac430000 	sw	v1,0(v0)
9d001798:	00000000 	nop
9d00179c:	3c02bf80 	lui	v0,0xbf80
9d0017a0:	34425a10 	ori	v0,v0,0x5a10
9d0017a4:	8c420000 	lw	v0,0(v0)
9d0017a8:	30420001 	andi	v0,v0,0x1
9d0017ac:	1040fffb 	beqz	v0,9d00179c <spi_send_recv+0x44>
9d0017b0:	00000000 	nop
9d0017b4:	3c02bf80 	lui	v0,0xbf80
9d0017b8:	34425a20 	ori	v0,v0,0x5a20
9d0017bc:	8c420000 	lw	v0,0(v0)
9d0017c0:	304200ff 	andi	v0,v0,0xff
9d0017c4:	03c0e821 	move	sp,s8
9d0017c8:	8fbe0004 	lw	s8,4(sp)
9d0017cc:	27bd0008 	addiu	sp,sp,8
9d0017d0:	03e00008 	jr	ra
9d0017d4:	00000000 	nop

9d0017d8 <display_init>:
9d0017d8:	27bdffe8 	addiu	sp,sp,-24
9d0017dc:	afbf0014 	sw	ra,20(sp)
9d0017e0:	afbe0010 	sw	s8,16(sp)
9d0017e4:	03a0f021 	move	s8,sp
9d0017e8:	3c02bf88 	lui	v0,0xbf88
9d0017ec:	34426154 	ori	v0,v0,0x6154
9d0017f0:	24030010 	li	v1,16
9d0017f4:	ac430000 	sw	v1,0(v0)
9d0017f8:	2404000a 	li	a0,10
9d0017fc:	0f40055b 	jal	9d00156c <quicksleep>
9d001800:	00000000 	nop
9d001804:	3c02bf88 	lui	v0,0xbf88
9d001808:	34426154 	ori	v0,v0,0x6154
9d00180c:	24030040 	li	v1,64
9d001810:	ac430000 	sw	v1,0(v0)
9d001814:	3c02000f 	lui	v0,0xf
9d001818:	34444240 	ori	a0,v0,0x4240
9d00181c:	0f40055b 	jal	9d00156c <quicksleep>
9d001820:	00000000 	nop
9d001824:	240400ae 	li	a0,174
9d001828:	0f4005d6 	jal	9d001758 <spi_send_recv>
9d00182c:	00000000 	nop
9d001830:	3c02bf88 	lui	v0,0xbf88
9d001834:	34426194 	ori	v0,v0,0x6194
9d001838:	24030200 	li	v1,512
9d00183c:	ac430000 	sw	v1,0(v0)
9d001840:	2404000a 	li	a0,10
9d001844:	0f40055b 	jal	9d00156c <quicksleep>
9d001848:	00000000 	nop
9d00184c:	3c02bf88 	lui	v0,0xbf88
9d001850:	34426198 	ori	v0,v0,0x6198
9d001854:	24030200 	li	v1,512
9d001858:	ac430000 	sw	v1,0(v0)
9d00185c:	2404000a 	li	a0,10
9d001860:	0f40055b 	jal	9d00156c <quicksleep>
9d001864:	00000000 	nop
9d001868:	2404008d 	li	a0,141
9d00186c:	0f4005d6 	jal	9d001758 <spi_send_recv>
9d001870:	00000000 	nop
9d001874:	24040014 	li	a0,20
9d001878:	0f4005d6 	jal	9d001758 <spi_send_recv>
9d00187c:	00000000 	nop
9d001880:	240400d9 	li	a0,217
9d001884:	0f4005d6 	jal	9d001758 <spi_send_recv>
9d001888:	00000000 	nop
9d00188c:	240400f1 	li	a0,241
9d001890:	0f4005d6 	jal	9d001758 <spi_send_recv>
9d001894:	00000000 	nop
9d001898:	3c02bf88 	lui	v0,0xbf88
9d00189c:	34426154 	ori	v0,v0,0x6154
9d0018a0:	24030020 	li	v1,32
9d0018a4:	ac430000 	sw	v1,0(v0)
9d0018a8:	3c020098 	lui	v0,0x98
9d0018ac:	34449680 	ori	a0,v0,0x9680
9d0018b0:	0f40055b 	jal	9d00156c <quicksleep>
9d0018b4:	00000000 	nop
9d0018b8:	240400a1 	li	a0,161
9d0018bc:	0f4005d6 	jal	9d001758 <spi_send_recv>
9d0018c0:	00000000 	nop
9d0018c4:	240400c8 	li	a0,200
9d0018c8:	0f4005d6 	jal	9d001758 <spi_send_recv>
9d0018cc:	00000000 	nop
9d0018d0:	240400da 	li	a0,218
9d0018d4:	0f4005d6 	jal	9d001758 <spi_send_recv>
9d0018d8:	00000000 	nop
9d0018dc:	24040020 	li	a0,32
9d0018e0:	0f4005d6 	jal	9d001758 <spi_send_recv>
9d0018e4:	00000000 	nop
9d0018e8:	240400af 	li	a0,175
9d0018ec:	0f4005d6 	jal	9d001758 <spi_send_recv>
9d0018f0:	00000000 	nop
9d0018f4:	03c0e821 	move	sp,s8
9d0018f8:	8fbf0014 	lw	ra,20(sp)
9d0018fc:	8fbe0010 	lw	s8,16(sp)
9d001900:	27bd0018 	addiu	sp,sp,24
9d001904:	03e00008 	jr	ra
9d001908:	00000000 	nop

9d00190c <display_string>:
9d00190c:	27bdfff0 	addiu	sp,sp,-16
9d001910:	afbe000c 	sw	s8,12(sp)
9d001914:	03a0f021 	move	s8,sp
9d001918:	afc40010 	sw	a0,16(s8)
9d00191c:	afc50014 	sw	a1,20(s8)
9d001920:	8fc20010 	lw	v0,16(s8)
9d001924:	04400005 	bltz	v0,9d00193c <display_string+0x30>
9d001928:	00000000 	nop
9d00192c:	8fc20010 	lw	v0,16(s8)
9d001930:	28420004 	slti	v0,v0,4
9d001934:	14400003 	bnez	v0,9d001944 <display_string+0x38>
9d001938:	00000000 	nop
9d00193c:	0b40067c 	j	9d0019f0 <display_string+0xe4>
9d001940:	00000000 	nop
9d001944:	8fc20014 	lw	v0,20(s8)
9d001948:	14400003 	bnez	v0,9d001958 <display_string+0x4c>
9d00194c:	00000000 	nop
9d001950:	0b40067c 	j	9d0019f0 <display_string+0xe4>
9d001954:	00000000 	nop
9d001958:	afc00000 	sw	zero,0(s8)
9d00195c:	0b400678 	j	9d0019e0 <display_string+0xd4>
9d001960:	00000000 	nop
9d001964:	8fc20014 	lw	v0,20(s8)
9d001968:	80420000 	lb	v0,0(v0)
9d00196c:	10400010 	beqz	v0,9d0019b0 <display_string+0xa4>
9d001970:	00000000 	nop
9d001974:	8fc20014 	lw	v0,20(s8)
9d001978:	80430000 	lb	v1,0(v0)
9d00197c:	3c02a000 	lui	v0,0xa000
9d001980:	8fc40010 	lw	a0,16(s8)
9d001984:	00042900 	sll	a1,a0,0x4
9d001988:	8fc40000 	lw	a0,0(s8)
9d00198c:	00a42021 	addu	a0,a1,a0
9d001990:	24420038 	addiu	v0,v0,56
9d001994:	00821021 	addu	v0,a0,v0
9d001998:	a0430000 	sb	v1,0(v0)
9d00199c:	8fc20014 	lw	v0,20(s8)
9d0019a0:	24420001 	addiu	v0,v0,1
9d0019a4:	afc20014 	sw	v0,20(s8)
9d0019a8:	0b400675 	j	9d0019d4 <display_string+0xc8>
9d0019ac:	00000000 	nop
9d0019b0:	3c02a000 	lui	v0,0xa000
9d0019b4:	8fc30010 	lw	v1,16(s8)
9d0019b8:	00032100 	sll	a0,v1,0x4
9d0019bc:	8fc30000 	lw	v1,0(s8)
9d0019c0:	00831821 	addu	v1,a0,v1
9d0019c4:	24420038 	addiu	v0,v0,56
9d0019c8:	00621021 	addu	v0,v1,v0
9d0019cc:	24030020 	li	v1,32
9d0019d0:	a0430000 	sb	v1,0(v0)
9d0019d4:	8fc20000 	lw	v0,0(s8)
9d0019d8:	24420001 	addiu	v0,v0,1
9d0019dc:	afc20000 	sw	v0,0(s8)
9d0019e0:	8fc20000 	lw	v0,0(s8)
9d0019e4:	28420010 	slti	v0,v0,16
9d0019e8:	1440ffde 	bnez	v0,9d001964 <display_string+0x58>
9d0019ec:	00000000 	nop
9d0019f0:	03c0e821 	move	sp,s8
9d0019f4:	8fbe000c 	lw	s8,12(sp)
9d0019f8:	27bd0010 	addiu	sp,sp,16
9d0019fc:	03e00008 	jr	ra
9d001a00:	00000000 	nop

9d001a04 <display_image>:
9d001a04:	27bdffe0 	addiu	sp,sp,-32
9d001a08:	afbf001c 	sw	ra,28(sp)
9d001a0c:	afbe0018 	sw	s8,24(sp)
9d001a10:	03a0f021 	move	s8,sp
9d001a14:	afc40020 	sw	a0,32(s8)
9d001a18:	afc50024 	sw	a1,36(s8)
9d001a1c:	afc00010 	sw	zero,16(s8)
9d001a20:	0b4006c5 	j	9d001b14 <display_image+0x110>
9d001a24:	00000000 	nop
9d001a28:	3c02bf88 	lui	v0,0xbf88
9d001a2c:	34426154 	ori	v0,v0,0x6154
9d001a30:	24030010 	li	v1,16
9d001a34:	ac430000 	sw	v1,0(v0)
9d001a38:	24040022 	li	a0,34
9d001a3c:	0f4005d6 	jal	9d001758 <spi_send_recv>
9d001a40:	00000000 	nop
9d001a44:	8fc20010 	lw	v0,16(s8)
9d001a48:	304200ff 	andi	v0,v0,0xff
9d001a4c:	00402021 	move	a0,v0
9d001a50:	0f4005d6 	jal	9d001758 <spi_send_recv>
9d001a54:	00000000 	nop
9d001a58:	8fc20020 	lw	v0,32(s8)
9d001a5c:	304200ff 	andi	v0,v0,0xff
9d001a60:	3042000f 	andi	v0,v0,0xf
9d001a64:	00402021 	move	a0,v0
9d001a68:	0f4005d6 	jal	9d001758 <spi_send_recv>
9d001a6c:	00000000 	nop
9d001a70:	8fc20020 	lw	v0,32(s8)
9d001a74:	00021103 	sra	v0,v0,0x4
9d001a78:	7c021420 	seb	v0,v0
9d001a7c:	3042000f 	andi	v0,v0,0xf
9d001a80:	7c021420 	seb	v0,v0
9d001a84:	34420010 	ori	v0,v0,0x10
9d001a88:	7c021420 	seb	v0,v0
9d001a8c:	304200ff 	andi	v0,v0,0xff
9d001a90:	00402021 	move	a0,v0
9d001a94:	0f4005d6 	jal	9d001758 <spi_send_recv>
9d001a98:	00000000 	nop
9d001a9c:	3c02bf88 	lui	v0,0xbf88
9d001aa0:	34426158 	ori	v0,v0,0x6158
9d001aa4:	24030010 	li	v1,16
9d001aa8:	ac430000 	sw	v1,0(v0)
9d001aac:	afc00014 	sw	zero,20(s8)
9d001ab0:	0b4006be 	j	9d001af8 <display_image+0xf4>
9d001ab4:	00000000 	nop
9d001ab8:	8fc20010 	lw	v0,16(s8)
9d001abc:	00021940 	sll	v1,v0,0x5
9d001ac0:	8fc20014 	lw	v0,20(s8)
9d001ac4:	00621021 	addu	v0,v1,v0
9d001ac8:	00401821 	move	v1,v0
9d001acc:	8fc20024 	lw	v0,36(s8)
9d001ad0:	00431021 	addu	v0,v0,v1
9d001ad4:	90420000 	lbu	v0,0(v0)
9d001ad8:	00021027 	nor	v0,zero,v0
9d001adc:	304200ff 	andi	v0,v0,0xff
9d001ae0:	00402021 	move	a0,v0
9d001ae4:	0f4005d6 	jal	9d001758 <spi_send_recv>
9d001ae8:	00000000 	nop
9d001aec:	8fc20014 	lw	v0,20(s8)
9d001af0:	24420001 	addiu	v0,v0,1
9d001af4:	afc20014 	sw	v0,20(s8)
9d001af8:	8fc20014 	lw	v0,20(s8)
9d001afc:	28420020 	slti	v0,v0,32
9d001b00:	1440ffed 	bnez	v0,9d001ab8 <display_image+0xb4>
9d001b04:	00000000 	nop
9d001b08:	8fc20010 	lw	v0,16(s8)
9d001b0c:	24420001 	addiu	v0,v0,1
9d001b10:	afc20010 	sw	v0,16(s8)
9d001b14:	8fc20010 	lw	v0,16(s8)
9d001b18:	28420004 	slti	v0,v0,4
9d001b1c:	1440ffc2 	bnez	v0,9d001a28 <display_image+0x24>
9d001b20:	00000000 	nop
9d001b24:	03c0e821 	move	sp,s8
9d001b28:	8fbf001c 	lw	ra,28(sp)
9d001b2c:	8fbe0018 	lw	s8,24(sp)
9d001b30:	27bd0020 	addiu	sp,sp,32
9d001b34:	03e00008 	jr	ra
9d001b38:	00000000 	nop

9d001b3c <display_update>:
9d001b3c:	27bdffd8 	addiu	sp,sp,-40
9d001b40:	afbf0024 	sw	ra,36(sp)
9d001b44:	afbe0020 	sw	s8,32(sp)
9d001b48:	03a0f021 	move	s8,sp
9d001b4c:	afc00010 	sw	zero,16(s8)
9d001b50:	0b40071d 	j	9d001c74 <display_update+0x138>
9d001b54:	00000000 	nop
9d001b58:	3c02bf88 	lui	v0,0xbf88
9d001b5c:	34426154 	ori	v0,v0,0x6154
9d001b60:	24030010 	li	v1,16
9d001b64:	ac430000 	sw	v1,0(v0)
9d001b68:	24040022 	li	a0,34
9d001b6c:	0f4005d6 	jal	9d001758 <spi_send_recv>
9d001b70:	00000000 	nop
9d001b74:	8fc20010 	lw	v0,16(s8)
9d001b78:	304200ff 	andi	v0,v0,0xff
9d001b7c:	00402021 	move	a0,v0
9d001b80:	0f4005d6 	jal	9d001758 <spi_send_recv>
9d001b84:	00000000 	nop
9d001b88:	00002021 	move	a0,zero
9d001b8c:	0f4005d6 	jal	9d001758 <spi_send_recv>
9d001b90:	00000000 	nop
9d001b94:	24040010 	li	a0,16
9d001b98:	0f4005d6 	jal	9d001758 <spi_send_recv>
9d001b9c:	00000000 	nop
9d001ba0:	3c02bf88 	lui	v0,0xbf88
9d001ba4:	34426158 	ori	v0,v0,0x6158
9d001ba8:	24030010 	li	v1,16
9d001bac:	ac430000 	sw	v1,0(v0)
9d001bb0:	afc00014 	sw	zero,20(s8)
9d001bb4:	0b400716 	j	9d001c58 <display_update+0x11c>
9d001bb8:	00000000 	nop
9d001bbc:	3c02a000 	lui	v0,0xa000
9d001bc0:	8fc30010 	lw	v1,16(s8)
9d001bc4:	00032100 	sll	a0,v1,0x4
9d001bc8:	8fc30014 	lw	v1,20(s8)
9d001bcc:	00831821 	addu	v1,a0,v1
9d001bd0:	24420038 	addiu	v0,v0,56
9d001bd4:	00621021 	addu	v0,v1,v0
9d001bd8:	80420000 	lb	v0,0(v0)
9d001bdc:	afc2001c 	sw	v0,28(s8)
9d001be0:	8fc2001c 	lw	v0,28(s8)
9d001be4:	30420080 	andi	v0,v0,0x80
9d001be8:	10400003 	beqz	v0,9d001bf8 <display_update+0xbc>
9d001bec:	00000000 	nop
9d001bf0:	0b400713 	j	9d001c4c <display_update+0x110>
9d001bf4:	00000000 	nop
9d001bf8:	afc00018 	sw	zero,24(s8)
9d001bfc:	0b40070f 	j	9d001c3c <display_update+0x100>
9d001c00:	00000000 	nop
9d001c04:	8fc2001c 	lw	v0,28(s8)
9d001c08:	000218c0 	sll	v1,v0,0x3
9d001c0c:	8fc20018 	lw	v0,24(s8)
9d001c10:	00621821 	addu	v1,v1,v0
9d001c14:	3c029d00 	lui	v0,0x9d00
9d001c18:	24422434 	addiu	v0,v0,9268
9d001c1c:	00621021 	addu	v0,v1,v0
9d001c20:	90420000 	lbu	v0,0(v0)
9d001c24:	00402021 	move	a0,v0
9d001c28:	0f4005d6 	jal	9d001758 <spi_send_recv>
9d001c2c:	00000000 	nop
9d001c30:	8fc20018 	lw	v0,24(s8)
9d001c34:	24420001 	addiu	v0,v0,1
9d001c38:	afc20018 	sw	v0,24(s8)
9d001c3c:	8fc20018 	lw	v0,24(s8)
9d001c40:	28420008 	slti	v0,v0,8
9d001c44:	1440ffef 	bnez	v0,9d001c04 <display_update+0xc8>
9d001c48:	00000000 	nop
9d001c4c:	8fc20014 	lw	v0,20(s8)
9d001c50:	24420001 	addiu	v0,v0,1
9d001c54:	afc20014 	sw	v0,20(s8)
9d001c58:	8fc20014 	lw	v0,20(s8)
9d001c5c:	28420010 	slti	v0,v0,16
9d001c60:	1440ffd6 	bnez	v0,9d001bbc <display_update+0x80>
9d001c64:	00000000 	nop
9d001c68:	8fc20010 	lw	v0,16(s8)
9d001c6c:	24420001 	addiu	v0,v0,1
9d001c70:	afc20010 	sw	v0,16(s8)
9d001c74:	8fc20010 	lw	v0,16(s8)
9d001c78:	28420004 	slti	v0,v0,4
9d001c7c:	1440ffb6 	bnez	v0,9d001b58 <display_update+0x1c>
9d001c80:	00000000 	nop
9d001c84:	03c0e821 	move	sp,s8
9d001c88:	8fbf0024 	lw	ra,36(sp)
9d001c8c:	8fbe0020 	lw	s8,32(sp)
9d001c90:	27bd0028 	addiu	sp,sp,40
9d001c94:	03e00008 	jr	ra
9d001c98:	00000000 	nop

9d001c9c <num32asc>:
9d001c9c:	27bdfff0 	addiu	sp,sp,-16
9d001ca0:	afbe000c 	sw	s8,12(sp)
9d001ca4:	03a0f021 	move	s8,sp
9d001ca8:	afc40010 	sw	a0,16(s8)
9d001cac:	afc50014 	sw	a1,20(s8)
9d001cb0:	2402001c 	li	v0,28
9d001cb4:	afc20000 	sw	v0,0(s8)
9d001cb8:	0b40073f 	j	9d001cfc <num32asc+0x60>
9d001cbc:	00000000 	nop
9d001cc0:	8fc20010 	lw	v0,16(s8)
9d001cc4:	24430001 	addiu	v1,v0,1
9d001cc8:	afc30010 	sw	v1,16(s8)
9d001ccc:	8fc40014 	lw	a0,20(s8)
9d001cd0:	8fc30000 	lw	v1,0(s8)
9d001cd4:	00641807 	srav	v1,a0,v1
9d001cd8:	3064000f 	andi	a0,v1,0xf
9d001cdc:	3c039d00 	lui	v1,0x9d00
9d001ce0:	246328f4 	addiu	v1,v1,10484
9d001ce4:	00831821 	addu	v1,a0,v1
9d001ce8:	80630000 	lb	v1,0(v1)
9d001cec:	a0430000 	sb	v1,0(v0)
9d001cf0:	8fc20000 	lw	v0,0(s8)
9d001cf4:	2442fffc 	addiu	v0,v0,-4
9d001cf8:	afc20000 	sw	v0,0(s8)
9d001cfc:	8fc20000 	lw	v0,0(s8)
9d001d00:	0441ffef 	bgez	v0,9d001cc0 <num32asc+0x24>
9d001d04:	00000000 	nop
9d001d08:	03c0e821 	move	sp,s8
9d001d0c:	8fbe000c 	lw	s8,12(sp)
9d001d10:	27bd0010 	addiu	sp,sp,16
9d001d14:	03e00008 	jr	ra
9d001d18:	00000000 	nop

9d001d1c <nextprime>:
9d001d1c:	27bdfff0 	addiu	sp,sp,-16
9d001d20:	afbe000c 	sw	s8,12(sp)
9d001d24:	afb20008 	sw	s2,8(sp)
9d001d28:	afb10004 	sw	s1,4(sp)
9d001d2c:	afb00000 	sw	s0,0(sp)
9d001d30:	03a0f021 	move	s8,sp
9d001d34:	afc40010 	sw	a0,16(s8)
9d001d38:	00008021 	move	s0,zero
9d001d3c:	8fc20010 	lw	v0,16(s8)
9d001d40:	28420003 	slti	v0,v0,3
9d001d44:	10400015 	beqz	v0,9d001d9c <nextprime+0x80>
9d001d48:	00000000 	nop
9d001d4c:	8fc20010 	lw	v0,16(s8)
9d001d50:	1c400004 	bgtz	v0,9d001d64 <nextprime+0x48>
9d001d54:	00000000 	nop
9d001d58:	24020001 	li	v0,1
9d001d5c:	0b40078a 	j	9d001e28 <nextprime+0x10c>
9d001d60:	00000000 	nop
9d001d64:	8fc30010 	lw	v1,16(s8)
9d001d68:	24020001 	li	v0,1
9d001d6c:	14620004 	bne	v1,v0,9d001d80 <nextprime+0x64>
9d001d70:	00000000 	nop
9d001d74:	24020002 	li	v0,2
9d001d78:	0b40078a 	j	9d001e28 <nextprime+0x10c>
9d001d7c:	00000000 	nop
9d001d80:	8fc30010 	lw	v1,16(s8)
9d001d84:	24020002 	li	v0,2
9d001d88:	14620007 	bne	v1,v0,9d001da8 <nextprime+0x8c>
9d001d8c:	00000000 	nop
9d001d90:	24020003 	li	v0,3
9d001d94:	0b40078a 	j	9d001e28 <nextprime+0x10c>
9d001d98:	00000000 	nop
9d001d9c:	8fc20010 	lw	v0,16(s8)
9d001da0:	24420001 	addiu	v0,v0,1
9d001da4:	34500001 	ori	s0,v0,0x1
9d001da8:	00009021 	move	s2,zero
9d001dac:	0b400786 	j	9d001e18 <nextprime+0xfc>
9d001db0:	00000000 	nop
9d001db4:	24110003 	li	s1,3
9d001db8:	0b40077a 	j	9d001de8 <nextprime+0xcc>
9d001dbc:	00000000 	nop
9d001dc0:	24120001 	li	s2,1
9d001dc4:	022001f4 	teq	s1,zero,0x7
9d001dc8:	0211001a 	div	zero,s0,s1
9d001dcc:	00001010 	mfhi	v0
9d001dd0:	14400004 	bnez	v0,9d001de4 <nextprime+0xc8>
9d001dd4:	00000000 	nop
9d001dd8:	00009021 	move	s2,zero
9d001ddc:	0b40077f 	j	9d001dfc <nextprime+0xe0>
9d001de0:	00000000 	nop
9d001de4:	26310001 	addiu	s1,s1,1
9d001de8:	00101043 	sra	v0,s0,0x1
9d001dec:	24420001 	addiu	v0,v0,1
9d001df0:	0051102a 	slt	v0,v0,s1
9d001df4:	1040fff2 	beqz	v0,9d001dc0 <nextprime+0xa4>
9d001df8:	00000000 	nop
9d001dfc:	24020001 	li	v0,1
9d001e00:	16420004 	bne	s2,v0,9d001e14 <nextprime+0xf8>
9d001e04:	00000000 	nop
9d001e08:	02001021 	move	v0,s0
9d001e0c:	0b40078a 	j	9d001e28 <nextprime+0x10c>
9d001e10:	00000000 	nop
9d001e14:	26100002 	addiu	s0,s0,2
9d001e18:	24020001 	li	v0,1
9d001e1c:	1642ffe5 	bne	s2,v0,9d001db4 <nextprime+0x98>
9d001e20:	00000000 	nop
9d001e24:	02001021 	move	v0,s0
9d001e28:	03c0e821 	move	sp,s8
9d001e2c:	8fbe000c 	lw	s8,12(sp)
9d001e30:	8fb20008 	lw	s2,8(sp)
9d001e34:	8fb10004 	lw	s1,4(sp)
9d001e38:	8fb00000 	lw	s0,0(sp)
9d001e3c:	27bd0010 	addiu	sp,sp,16
9d001e40:	03e00008 	jr	ra
9d001e44:	00000000 	nop

9d001e48 <itoaconv>:
9d001e48:	27bdfff0 	addiu	sp,sp,-16
9d001e4c:	afbe000c 	sw	s8,12(sp)
9d001e50:	afb10008 	sw	s1,8(sp)
9d001e54:	afb00004 	sw	s0,4(sp)
9d001e58:	03a0f021 	move	s8,sp
9d001e5c:	afc40010 	sw	a0,16(s8)
9d001e60:	3c02a000 	lui	v0,0xa000
9d001e64:	2442007c 	addiu	v0,v0,124
9d001e68:	a0400017 	sb	zero,23(v0)
9d001e6c:	8fd10010 	lw	s1,16(s8)
9d001e70:	8fc20010 	lw	v0,16(s8)
9d001e74:	04410019 	bgez	v0,9d001edc <itoaconv+0x94>
9d001e78:	00000000 	nop
9d001e7c:	8fc20010 	lw	v0,16(s8)
9d001e80:	2442ffff 	addiu	v0,v0,-1
9d001e84:	18400015 	blez	v0,9d001edc <itoaconv+0x94>
9d001e88:	00000000 	nop
9d001e8c:	00008021 	move	s0,zero
9d001e90:	0b4007b0 	j	9d001ec0 <itoaconv+0x78>
9d001e94:	00000000 	nop
9d001e98:	26040001 	addiu	a0,s0,1
9d001e9c:	3c029d00 	lui	v0,0x9d00
9d001ea0:	24422908 	addiu	v0,v0,10504
9d001ea4:	02021021 	addu	v0,s0,v0
9d001ea8:	80430000 	lb	v1,0(v0)
9d001eac:	3c02a000 	lui	v0,0xa000
9d001eb0:	2442007c 	addiu	v0,v0,124
9d001eb4:	00821021 	addu	v0,a0,v0
9d001eb8:	a0430000 	sb	v1,0(v0)
9d001ebc:	26100001 	addiu	s0,s0,1
9d001ec0:	02001021 	move	v0,s0
9d001ec4:	2c42000c 	sltiu	v0,v0,12
9d001ec8:	1440fff3 	bnez	v0,9d001e98 <itoaconv+0x50>
9d001ecc:	00000000 	nop
9d001ed0:	00008021 	move	s0,zero
9d001ed4:	0b4007e7 	j	9d001f9c <itoaconv+0x154>
9d001ed8:	00000000 	nop
9d001edc:	8fc20010 	lw	v0,16(s8)
9d001ee0:	04410004 	bgez	v0,9d001ef4 <itoaconv+0xac>
9d001ee4:	00000000 	nop
9d001ee8:	8fc20010 	lw	v0,16(s8)
9d001eec:	00021023 	negu	v0,v0
9d001ef0:	afc20010 	sw	v0,16(s8)
9d001ef4:	24100016 	li	s0,22
9d001ef8:	8fc30010 	lw	v1,16(s8)
9d001efc:	3c026666 	lui	v0,0x6666
9d001f00:	34426667 	ori	v0,v0,0x6667
9d001f04:	00620018 	mult	v1,v0
9d001f08:	00001010 	mfhi	v0
9d001f0c:	00022083 	sra	a0,v0,0x2
9d001f10:	000317c3 	sra	v0,v1,0x1f
9d001f14:	00821023 	subu	v0,a0,v0
9d001f18:	00021040 	sll	v0,v0,0x1
9d001f1c:	00022080 	sll	a0,v0,0x2
9d001f20:	00441021 	addu	v0,v0,a0
9d001f24:	00621023 	subu	v0,v1,v0
9d001f28:	304200ff 	andi	v0,v0,0xff
9d001f2c:	24420030 	addiu	v0,v0,48
9d001f30:	304200ff 	andi	v0,v0,0xff
9d001f34:	7c021c20 	seb	v1,v0
9d001f38:	3c02a000 	lui	v0,0xa000
9d001f3c:	2442007c 	addiu	v0,v0,124
9d001f40:	02021021 	addu	v0,s0,v0
9d001f44:	a0430000 	sb	v1,0(v0)
9d001f48:	8fc20010 	lw	v0,16(s8)
9d001f4c:	3c036666 	lui	v1,0x6666
9d001f50:	34636667 	ori	v1,v1,0x6667
9d001f54:	00430018 	mult	v0,v1
9d001f58:	00001810 	mfhi	v1
9d001f5c:	00031883 	sra	v1,v1,0x2
9d001f60:	000217c3 	sra	v0,v0,0x1f
9d001f64:	00621023 	subu	v0,v1,v0
9d001f68:	afc20010 	sw	v0,16(s8)
9d001f6c:	2610ffff 	addiu	s0,s0,-1
9d001f70:	8fc20010 	lw	v0,16(s8)
9d001f74:	1c40ffe0 	bgtz	v0,9d001ef8 <itoaconv+0xb0>
9d001f78:	00000000 	nop
9d001f7c:	06210007 	bgez	s1,9d001f9c <itoaconv+0x154>
9d001f80:	00000000 	nop
9d001f84:	3c02a000 	lui	v0,0xa000
9d001f88:	2442007c 	addiu	v0,v0,124
9d001f8c:	02021021 	addu	v0,s0,v0
9d001f90:	2403002d 	li	v1,45
9d001f94:	a0430000 	sb	v1,0(v0)
9d001f98:	2610ffff 	addiu	s0,s0,-1
9d001f9c:	26030001 	addiu	v1,s0,1
9d001fa0:	3c02a000 	lui	v0,0xa000
9d001fa4:	2442007c 	addiu	v0,v0,124
9d001fa8:	00621021 	addu	v0,v1,v0
9d001fac:	03c0e821 	move	sp,s8
9d001fb0:	8fbe000c 	lw	s8,12(sp)
9d001fb4:	8fb10008 	lw	s1,8(sp)
9d001fb8:	8fb00004 	lw	s0,4(sp)
9d001fbc:	27bd0010 	addiu	sp,sp,16
9d001fc0:	03e00008 	jr	ra
9d001fc4:	00000000 	nop

9d001fc8 <getsw>:
9d001fc8:	27bdfff0 	addiu	sp,sp,-16
9d001fcc:	afbe000c 	sw	s8,12(sp)
9d001fd0:	03a0f021 	move	s8,sp
9d001fd4:	3c02bf88 	lui	v0,0xbf88
9d001fd8:	344260d0 	ori	v0,v0,0x60d0
9d001fdc:	8c420000 	lw	v0,0(v0)
9d001fe0:	00021202 	srl	v0,v0,0x8
9d001fe4:	3042000f 	andi	v0,v0,0xf
9d001fe8:	afc20000 	sw	v0,0(s8)
9d001fec:	8fc30000 	lw	v1,0(s8)
9d001ff0:	24020004 	li	v0,4
9d001ff4:	14620005 	bne	v1,v0,9d00200c <getsw+0x44>
9d001ff8:	00000000 	nop
9d001ffc:	8fc20000 	lw	v0,0(s8)
9d002000:	2442ffff 	addiu	v0,v0,-1
9d002004:	0b40080c 	j	9d002030 <getsw+0x68>
9d002008:	00000000 	nop
9d00200c:	8fc30000 	lw	v1,0(s8)
9d002010:	24020008 	li	v0,8
9d002014:	14620005 	bne	v1,v0,9d00202c <getsw+0x64>
9d002018:	00000000 	nop
9d00201c:	8fc20000 	lw	v0,0(s8)
9d002020:	2442fffc 	addiu	v0,v0,-4
9d002024:	0b40080c 	j	9d002030 <getsw+0x68>
9d002028:	00000000 	nop
9d00202c:	8fc20000 	lw	v0,0(s8)
9d002030:	03c0e821 	move	sp,s8
9d002034:	8fbe000c 	lw	s8,12(sp)
9d002038:	27bd0010 	addiu	sp,sp,16
9d00203c:	03e00008 	jr	ra
9d002040:	00000000 	nop

9d002044 <getbtns>:
9d002044:	27bdfff0 	addiu	sp,sp,-16
9d002048:	afbe000c 	sw	s8,12(sp)
9d00204c:	03a0f021 	move	s8,sp
9d002050:	3c02bf88 	lui	v0,0xbf88
9d002054:	344260d0 	ori	v0,v0,0x60d0
9d002058:	8c420000 	lw	v0,0(v0)
9d00205c:	00021142 	srl	v0,v0,0x5
9d002060:	30420007 	andi	v0,v0,0x7
9d002064:	afc20000 	sw	v0,0(s8)
9d002068:	8fc20000 	lw	v0,0(s8)
9d00206c:	03c0e821 	move	sp,s8
9d002070:	8fbe000c 	lw	s8,12(sp)
9d002074:	27bd0010 	addiu	sp,sp,16
9d002078:	03e00008 	jr	ra
9d00207c:	00000000 	nop

9d002080 <hexasc>:
9d002080:	2408000f 	li	t0,15
9d002084:	00a84824 	and	t1,a1,t0
9d002088:	2921000a 	slti	at,t1,10
9d00208c:	14200005 	bnez	at,9d0020a4 <less>
9d002090:	00000000 	nop
9d002094:	212a0037 	addi	t2,t1,55
9d002098:	03e00008 	jr	ra
9d00209c:	00000000 	nop
9d0020a0:	00000000 	nop

9d0020a4 <less>:
9d0020a4:	21290030 	addi	t1,t1,48
9d0020a8:	01201021 	move	v0,t1
9d0020ac:	03e00008 	jr	ra
9d0020b0:	00000000 	nop
9d0020b4:	00000000 	nop

9d0020b8 <delay>:
9d0020b8:	23bdfffc 	addi	sp,sp,-4
9d0020bc:	afbf0000 	sw	ra,0(sp)
9d0020c0:	24092ee0 	li	t1,12000

9d0020c4 <while>:
9d0020c4:	1080000b 	beqz	a0,9d0020f4 <done>
9d0020c8:	00000000 	nop
9d0020cc:	00000000 	nop
9d0020d0:	2084ffff 	addi	a0,a0,-1
9d0020d4:	24080000 	li	t0,0

9d0020d8 <for>:
9d0020d8:	1109fffa 	beq	t0,t1,9d0020c4 <while>
9d0020dc:	00000000 	nop
9d0020e0:	00000000 	nop
9d0020e4:	21080001 	addi	t0,t0,1
9d0020e8:	0b400836 	j	9d0020d8 <for>
9d0020ec:	00000000 	nop
9d0020f0:	00000000 	nop

9d0020f4 <done>:
9d0020f4:	8fbf0000 	lw	ra,0(sp)
9d0020f8:	23bd0004 	addi	sp,sp,4
9d0020fc:	03e00008 	jr	ra
9d002100:	00000000 	nop
9d002104:	00000000 	nop

9d002108 <time2string>:
9d002108:	23bdfffc 	addi	sp,sp,-4
9d00210c:	afbf0000 	sw	ra,0(sp)
9d002110:	23bdfffc 	addi	sp,sp,-4
9d002114:	afb00000 	sw	s0,0(sp)
9d002118:	23bdfffc 	addi	sp,sp,-4
9d00211c:	afb10000 	sw	s1,0(sp)
9d002120:	23bdfffc 	addi	sp,sp,-4
9d002124:	afb20000 	sw	s2,0(sp)
9d002128:	23bdfffc 	addi	sp,sp,-4
9d00212c:	afb30000 	sw	s3,0(sp)
9d002130:	240c0000 	li	t4,0
9d002134:	240d003a 	li	t5,58
9d002138:	24090045 	li	t1,69
9d00213c:	30af00ff 	andi	t7,a1,0xff
9d002140:	0f400820 	jal	9d002080 <hexasc>
9d002144:	00000000 	nop
9d002148:	00000000 	nop
9d00214c:	00408021 	move	s0,v0
9d002150:	00052902 	srl	a1,a1,0x4
9d002154:	0f400820 	jal	9d002080 <hexasc>
9d002158:	00000000 	nop
9d00215c:	00000000 	nop
9d002160:	00408821 	move	s1,v0
9d002164:	00052902 	srl	a1,a1,0x4
9d002168:	0f400820 	jal	9d002080 <hexasc>
9d00216c:	00000000 	nop
9d002170:	00000000 	nop
9d002174:	00409021 	move	s2,v0
9d002178:	00052902 	srl	a1,a1,0x4
9d00217c:	0f400820 	jal	9d002080 <hexasc>
9d002180:	00000000 	nop
9d002184:	00000000 	nop
9d002188:	00409821 	move	s3,v0
9d00218c:	0f400820 	jal	9d002080 <hexasc>
9d002190:	00000000 	nop
9d002194:	00000000 	nop
9d002198:	24090058 	li	t1,88
9d00219c:	11e00014 	beqz	t7,9d0021f0 <xprint>
9d0021a0:	00000000 	nop
9d0021a4:	a0930000 	sb	s3,0(a0)
9d0021a8:	a0920001 	sb	s2,1(a0)
9d0021ac:	a08d0002 	sb	t5,2(a0)
9d0021b0:	a0910003 	sb	s1,3(a0)
9d0021b4:	a0900004 	sb	s0,4(a0)
9d0021b8:	a08c0005 	sb	t4,5(a0)
9d0021bc:	8fb30000 	lw	s3,0(sp)
9d0021c0:	23bd0004 	addi	sp,sp,4
9d0021c4:	8fb20000 	lw	s2,0(sp)
9d0021c8:	23bd0004 	addi	sp,sp,4
9d0021cc:	8fb10000 	lw	s1,0(sp)
9d0021d0:	23bd0004 	addi	sp,sp,4
9d0021d4:	8fb00000 	lw	s0,0(sp)
9d0021d8:	23bd0004 	addi	sp,sp,4
9d0021dc:	8fbf0000 	lw	ra,0(sp)
9d0021e0:	23bd0004 	addi	sp,sp,4
9d0021e4:	03e00008 	jr	ra
9d0021e8:	00000000 	nop
9d0021ec:	00000000 	nop

9d0021f0 <xprint>:
9d0021f0:	a0930000 	sb	s3,0(a0)
9d0021f4:	a0920001 	sb	s2,1(a0)
9d0021f8:	a08d0002 	sb	t5,2(a0)
9d0021fc:	a0910003 	sb	s1,3(a0)
9d002200:	a0900004 	sb	s0,4(a0)
9d002204:	a0890005 	sb	t1,5(a0)
9d002208:	a08c0006 	sb	t4,6(a0)
9d00220c:	8fbf0000 	lw	ra,0(sp)
9d002210:	23bd0004 	addi	sp,sp,4
9d002214:	03e00008 	jr	ra
9d002218:	00000000 	nop
9d00221c:	00000000 	nop

9d002220 <enable_interrupt>:
9d002220:	41606020 	ei
9d002224:	03e00008 	jr	ra
9d002228:	00000000 	nop
9d00222c:	00000000 	nop

9d002230 <__use_isr_install>:
9d002230:	9d002330 	0x9d002330
9d002234:	9d002330 	0x9d002330
9d002238:	9d002330 	0x9d002330
9d00223c:	9d002330 	0x9d002330
9d002240:	9d002330 	0x9d002330
9d002244:	9d002330 	0x9d002330
9d002248:	9d002330 	0x9d002330
9d00224c:	9d002330 	0x9d002330
9d002250:	9d002330 	0x9d002330
9d002254:	9d002330 	0x9d002330
9d002258:	9d002330 	0x9d002330
9d00225c:	9d002330 	0x9d002330
9d002260:	9d002330 	0x9d002330
9d002264:	9d002330 	0x9d002330
9d002268:	9d002330 	0x9d002330
9d00226c:	9d002330 	0x9d002330
9d002270:	9d002330 	0x9d002330
9d002274:	9d002330 	0x9d002330
9d002278:	9d002330 	0x9d002330
9d00227c:	9d002330 	0x9d002330
9d002280:	9d002330 	0x9d002330
9d002284:	9d002330 	0x9d002330
9d002288:	9d002330 	0x9d002330
9d00228c:	9d002330 	0x9d002330
9d002290:	9d002330 	0x9d002330
9d002294:	9d002330 	0x9d002330
9d002298:	9d002330 	0x9d002330
9d00229c:	9d002330 	0x9d002330
9d0022a0:	9d002330 	0x9d002330
9d0022a4:	9d002330 	0x9d002330
9d0022a8:	9d002330 	0x9d002330
9d0022ac:	9d002330 	0x9d002330
9d0022b0:	9d002330 	0x9d002330
9d0022b4:	9d002330 	0x9d002330
9d0022b8:	9d002330 	0x9d002330
9d0022bc:	9d002330 	0x9d002330
9d0022c0:	9d002330 	0x9d002330
9d0022c4:	9d002330 	0x9d002330
9d0022c8:	9d002330 	0x9d002330
9d0022cc:	9d002330 	0x9d002330
9d0022d0:	9d002330 	0x9d002330
9d0022d4:	9d002330 	0x9d002330
9d0022d8:	9d002330 	0x9d002330
9d0022dc:	9d002330 	0x9d002330
9d0022e0:	9d002330 	0x9d002330
9d0022e4:	9d002330 	0x9d002330
9d0022e8:	9d002330 	0x9d002330
9d0022ec:	9d002330 	0x9d002330
9d0022f0:	9d002330 	0x9d002330
9d0022f4:	9d002330 	0x9d002330
9d0022f8:	9d002330 	0x9d002330
9d0022fc:	9d002330 	0x9d002330
9d002300:	9d002330 	0x9d002330
9d002304:	9d002330 	0x9d002330
9d002308:	9d002330 	0x9d002330
9d00230c:	9d002330 	0x9d002330
9d002310:	9d002330 	0x9d002330
9d002314:	9d002330 	0x9d002330
9d002318:	9d002330 	0x9d002330
9d00231c:	9d002330 	0x9d002330
9d002320:	9d002330 	0x9d002330
9d002324:	9d002330 	0x9d002330
9d002328:	9d002330 	0x9d002330
9d00232c:	9d002330 	0x9d002330

9d002330 <_isr_trampoline>:
9d002330:	23bdffc0 	addi	sp,sp,-64
9d002334:	afbf0000 	sw	ra,0(sp)
9d002338:	afa10004 	sw	at,4(sp)
9d00233c:	afa20008 	sw	v0,8(sp)
9d002340:	afa3000c 	sw	v1,12(sp)
9d002344:	afa40010 	sw	a0,16(sp)
9d002348:	afa50014 	sw	a1,20(sp)
9d00234c:	afa60018 	sw	a2,24(sp)
9d002350:	afa7001c 	sw	a3,28(sp)
9d002354:	afa80020 	sw	t0,32(sp)
9d002358:	afa90024 	sw	t1,36(sp)
9d00235c:	afaa0028 	sw	t2,40(sp)
9d002360:	afab002c 	sw	t3,44(sp)
9d002364:	afac0030 	sw	t4,48(sp)
9d002368:	afad0034 	sw	t5,52(sp)
9d00236c:	afae0038 	sw	t6,56(sp)
9d002370:	afaf003c 	sw	t7,60(sp)
9d002374:	0f4004e7 	jal	9d00139c <user_isr>
9d002378:	00000000 	nop
9d00237c:	8faf003c 	lw	t7,60(sp)
9d002380:	8fae0038 	lw	t6,56(sp)
9d002384:	8fad0034 	lw	t5,52(sp)
9d002388:	8fac0030 	lw	t4,48(sp)
9d00238c:	8fab002c 	lw	t3,44(sp)
9d002390:	8faa0028 	lw	t2,40(sp)
9d002394:	8fa90024 	lw	t1,36(sp)
9d002398:	8fa80020 	lw	t0,32(sp)
9d00239c:	8fa7001c 	lw	a3,28(sp)
9d0023a0:	8fa60018 	lw	a2,24(sp)
9d0023a4:	8fa50014 	lw	a1,20(sp)
9d0023a8:	8fa40010 	lw	a0,16(sp)
9d0023ac:	8fa3000c 	lw	v1,12(sp)
9d0023b0:	8fa20008 	lw	v0,8(sp)
9d0023b4:	8fa10004 	lw	at,4(sp)
9d0023b8:	8fbf0000 	lw	ra,0(sp)
9d0023bc:	23bd0040 	addi	sp,sp,64
9d0023c0:	42000018 	eret
	...

9d0023d0 <_main_entry>:
9d0023d0:	30840000 	andi	a0,a0,0x0
9d0023d4:	30a50000 	andi	a1,a1,0x0
9d0023d8:	0f400460 	jal	9d001180 <main>
9d0023dc:	00000000 	nop
9d0023e0:	1000ffff 	b	9d0023e0 <_main_entry+0x10>
9d0023e4:	00000000 	nop

Disassembly of section .header_info:

9d0023e8 <_image_header_info>:
9d0023e8:	0000004c 	syscall	0x1
9d0023ec:	ffffffff 	sdc3	$31,-1(ra)
9d0023f0:	0100030e 	0x100030e
9d0023f4:	ffffffff 	sdc3	$31,-1(ra)
9d0023f8:	ffffffff 	sdc3	$31,-1(ra)
9d0023fc:	01020001 	0x1020001
9d002400:	9d001000 	0x9d001000
9d002404:	9d000000 	0x9d000000
9d002408:	0001f000 	sll	s8,at,0x0
9d00240c:	9d01f000 	0x9d01f000
9d002410:	00001000 	sll	v0,zero,0x0
9d002414:	bfc02ff0 	cache	0x0,12272(s8)
9d002418:	00000010 	mfhi	zero
9d00241c:	a0000000 	sb	zero,0(zero)
9d002420:	00000008 	jr	zero
9d002424:	ffffffff 	sdc3	$31,-1(ra)
9d002428:	9d000220 	0x9d000220
9d00242c:	9d000200 	0x9d000200
9d002430:	00000020 	add	zero,zero,zero

Disassembly of section .ram_exchange_data:

a0000000 <_ram_header_addr>:
	...

Disassembly of section .rodata:

9d002434 <font>:
	...
9d00253c:	5e000000 	bgtzl	s0,9d002540 <font+0x10c>
9d002540:	00000000 	nop
9d002544:	03040000 	0x3040000
9d002548:	00000304 	0x304
9d00254c:	247e2400 	addiu	s8,v1,9216
9d002550:	00247e24 	0x247e24
9d002554:	ff4a2400 	sdc3	$10,9216(k0)
9d002558:	00002452 	0x2452
9d00255c:	10264600 	beq	at,a2,9d013d60 <_data_image_begin+0x11430>
9d002560:	00626408 	0x626408
9d002564:	4a4a3400 	c2	0x4a3400
9d002568:	00502034 	teq	v0,s0,0x80
9d00256c:	04000000 	bltz	zero,9d002570 <font+0x13c>
9d002570:	00000003 	sra	zero,zero,0x0
9d002574:	7e000000 	ext	zero,s0,0x0,0x1
9d002578:	00000081 	0x81
9d00257c:	81000000 	lb	zero,0(t0)
9d002580:	0000007e 	0x7e
9d002584:	3e1c2a00 	0x3e1c2a00
9d002588:	00002a1c 	0x2a1c
9d00258c:	3e080800 	0x3e080800
9d002590:	00000808 	0x808
9d002594:	80000000 	lb	zero,0(zero)
9d002598:	00000060 	0x60
9d00259c:	08080800 	j	90202000 <_imageExecutionJumpToFirstInFlash+0x8e202000>
9d0025a0:	00000808 	0x808
9d0025a4:	00000000 	nop
9d0025a8:	00000060 	0x60
9d0025ac:	10204000 	beqz	at,9d0125b0 <_data_image_begin+0xfc80>
9d0025b0:	00020408 	0x20408
9d0025b4:	49413e00 	0x49413e00
9d0025b8:	00003e41 	0x3e41
9d0025bc:	7f420000 	ext	v0,k0,0x0,0x1
9d0025c0:	00000040 	ssnop
9d0025c4:	51620000 	beql	t3,v0,9d0025c8 <font+0x194>
9d0025c8:	00004649 	0x4649
9d0025cc:	49220000 	0x49220000
9d0025d0:	00003649 	0x3649
9d0025d4:	080e0000 	j	90380000 <_imageExecutionJumpToFirstInFlash+0x8e380000>
9d0025d8:	0000087f 	0x87f
9d0025dc:	45230000 	0x45230000
9d0025e0:	00003945 	0x3945
9d0025e4:	493e0000 	0x493e0000
9d0025e8:	00003249 	0x3249
9d0025ec:	61010000 	0x61010000
9d0025f0:	00000719 	0x719
9d0025f4:	49360000 	0x49360000
9d0025f8:	00003649 	0x3649
9d0025fc:	09060000 	j	94180000 <_imageExecutionJumpToFirstInFlash+0x92180000>
9d002600:	00007e09 	0x7e09
9d002604:	66000000 	0x66000000
9d002608:	00000000 	nop
9d00260c:	66800000 	0x66800000
9d002610:	00000000 	nop
9d002614:	14080000 	bne	zero,t0,9d002618 <font+0x1e4>
9d002618:	00004122 	0x4122
9d00261c:	14140000 	bne	zero,s4,9d002620 <font+0x1ec>
9d002620:	00001414 	0x1414
9d002624:	22410000 	addi	at,s2,0
9d002628:	00000814 	0x814
9d00262c:	51010200 	beql	t0,at,9d002e30 <_data_image_begin+0x500>
9d002630:	00000609 	0x609
9d002634:	59221c00 	0x59221c00
9d002638:	000c5259 	0xc5259
9d00263c:	097e0000 	j	95f80000 <_imageExecutionJumpToFirstInFlash+0x93f80000>
9d002640:	00007e09 	0x7e09
9d002644:	497f0000 	0x497f0000
9d002648:	00003649 	0x3649
9d00264c:	413e0000 	0x413e0000
9d002650:	00002241 	0x2241
9d002654:	417f0000 	0x417f0000
9d002658:	00003e41 	0x3e41
9d00265c:	497f0000 	0x497f0000
9d002660:	00004149 	0x4149
9d002664:	097f0000 	j	95fc0000 <_imageExecutionJumpToFirstInFlash+0x93fc0000>
9d002668:	00000109 	0x109
9d00266c:	413e0000 	0x413e0000
9d002670:	00003251 	0x3251
9d002674:	087f0000 	j	91fc0000 <_imageExecutionJumpToFirstInFlash+0x8ffc0000>
9d002678:	00007f08 	0x7f08
9d00267c:	7f410000 	ext	at,k0,0x0,0x1
9d002680:	00000041 	0x41
9d002684:	40200000 	0x40200000
9d002688:	00003f40 	sll	a3,zero,0x1d
9d00268c:	087f0000 	j	91fc0000 <_imageExecutionJumpToFirstInFlash+0x8ffc0000>
9d002690:	00006314 	0x6314
9d002694:	407f0000 	mfgc0	ra,c0_index
9d002698:	00004040 	sll	t0,zero,0x1
9d00269c:	04027f00 	bltzl	zero,9d0222a0 <_EEPROM_ADDR+0x32a0>
9d0026a0:	00007f02 	srl	t7,zero,0x1c
9d0026a4:	08067f00 	j	9019fc00 <_imageExecutionJumpToFirstInFlash+0x8e19fc00>
9d0026a8:	00007f30 	tge	zero,zero,0x1fc
9d0026ac:	413e0000 	0x413e0000
9d0026b0:	00003e41 	0x3e41
9d0026b4:	097f0000 	j	95fc0000 <_imageExecutionJumpToFirstInFlash+0x93fc0000>
9d0026b8:	00000609 	0x609
9d0026bc:	413e0000 	0x413e0000
9d0026c0:	00407e61 	0x407e61
9d0026c4:	097f0000 	j	95fc0000 <_imageExecutionJumpToFirstInFlash+0x93fc0000>
9d0026c8:	00007609 	0x7609
9d0026cc:	49260000 	0x49260000
9d0026d0:	00003249 	0x3249
9d0026d4:	7f010100 	ext	at,t8,0x4,0x1
9d0026d8:	00000101 	0x101
9d0026dc:	403f0000 	0x403f0000
9d0026e0:	00003f40 	sll	a3,zero,0x1d
9d0026e4:	40201f00 	0x40201f00
9d0026e8:	00001f20 	0x1f20
9d0026ec:	30403f00 	andi	zero,v0,0x3f00
9d0026f0:	00003f40 	sll	a3,zero,0x1d
9d0026f4:	08770000 	j	91dc0000 <_imageExecutionJumpToFirstInFlash+0x8fdc0000>
9d0026f8:	00007708 	0x7708
9d0026fc:	78040300 	andi.b	$w12,$w0,0x4
9d002700:	00000304 	0x304
9d002704:	49710000 	0x49710000
9d002708:	00004749 	0x4749
9d00270c:	417f0000 	0x417f0000
9d002710:	00000041 	0x41
9d002714:	08040200 	j	90100800 <_imageExecutionJumpToFirstInFlash+0x8e100800>
9d002718:	00402010 	mfhi	a0,$ac2
9d00271c:	41000000 	mftc0	zero,c0_index
9d002720:	00007f41 	0x7f41
9d002724:	01020400 	0x1020400
9d002728:	00000402 	srl	zero,zero,0x10
9d00272c:	40404000 	mfhc0	zero,c0_badvaddr
9d002730:	00404040 	0x404040
9d002734:	02010000 	0x2010000
9d002738:	00000004 	sllv	zero,zero,zero
9d00273c:	48300000 	0x48300000
9d002740:	00007828 	0x7828
9d002744:	487f0000 	mfhc2	ra,$0
9d002748:	00003048 	0x3048
9d00274c:	48300000 	0x48300000
9d002750:	00000048 	0x48
9d002754:	48300000 	0x48300000
9d002758:	00007f48 	0x7f48
9d00275c:	58300000 	0x58300000
9d002760:	00001058 	0x1058
9d002764:	097e0000 	j	95f80000 <_imageExecutionJumpToFirstInFlash+0x93f80000>
9d002768:	00000201 	0x201
9d00276c:	98500000 	lwr	s0,0(v0)
9d002770:	00007098 	0x7098
9d002774:	087f0000 	j	91fc0000 <_imageExecutionJumpToFirstInFlash+0x8ffc0000>
9d002778:	00007008 	0x7008
9d00277c:	7a000000 	nori.b	$w0,$w0,0x0
9d002780:	00000000 	nop
9d002784:	80400000 	lb	zero,0(v0)
9d002788:	00007a80 	sll	t7,zero,0xa
9d00278c:	107f0000 	beq	v1,ra,9d002790 <font+0x35c>
9d002790:	00004828 	0x4828
9d002794:	7f000000 	ext	zero,t8,0x0,0x1
9d002798:	00000000 	nop
9d00279c:	10087800 	beq	zero,t0,9d0207a0 <_EEPROM_ADDR+0x17a0>
9d0027a0:	00007008 	0x7008
9d0027a4:	08780000 	j	91e00000 <_imageExecutionJumpToFirstInFlash+0x8fe00000>
9d0027a8:	00007008 	0x7008
9d0027ac:	48300000 	0x48300000
9d0027b0:	00003048 	0x3048
9d0027b4:	28f80000 	slti	t8,a3,0
9d0027b8:	00001028 	0x1028
9d0027bc:	28100000 	slti	s0,zero,0
9d0027c0:	0000f828 	0xf828
9d0027c4:	08700000 	j	91c00000 <_imageExecutionJumpToFirstInFlash+0x8fc00000>
9d0027c8:	00001008 	0x1008
9d0027cc:	54480000 	bnel	v0,t0,9d0027d0 <font+0x39c>
9d0027d0:	00002454 	0x2454
9d0027d4:	3c080000 	lui	t0,0x0
9d0027d8:	00002048 	0x2048
9d0027dc:	40380000 	0x40380000
9d0027e0:	00007820 	add	t7,zero,zero
9d0027e4:	40380000 	0x40380000
9d0027e8:	00000038 	0x38
9d0027ec:	20403800 	addi	zero,v0,14336
9d0027f0:	00003840 	sll	a3,zero,0x1
9d0027f4:	30480000 	andi	t0,v0,0x0
9d0027f8:	00004830 	tge	zero,zero,0x120
9d0027fc:	a0180000 	sb	t8,0(zero)
9d002800:	000078a0 	0x78a0
9d002804:	54640000 	bnel	v1,a0,9d002808 <font+0x3d4>
9d002808:	00004c54 	0x4c54
9d00280c:	1c080000 	0x1c080000
9d002810:	00004122 	0x4122
9d002814:	7e000000 	ext	zero,s0,0x0,0x1
9d002818:	00000000 	nop
9d00281c:	22410000 	addi	at,s2,0
9d002820:	0000081c 	0x81c
9d002824:	02040000 	0x2040000
9d002828:	00000204 	0x204
9d00282c:	42447800 	c0	0x447800
9d002830:	00007844 	0x7844

9d002834 <icon>:
9d002834:	ffffffff 	sdc3	$31,-1(ra)
9d002838:	bb7fffff 	swr	ra,-1(k1)
9d00283c:	5daa5f44 	0x5daa5f44
9d002840:	5fafd7a3 	0x5fafd7a3
9d002844:	5faf5faf 	0x5faf5faf
9d002848:	f7af6fdf 	sdc1	$f15,28639(sp)
9d00284c:	fef2ed3b 	sdc3	$18,-4805(s7)
9d002850:	ff01feab 	sdc3	$1,-341(t8)
9d002854:	d30fffff 	0xd30fffff
9d002858:	08fd3a6d 	j	93f4e9b4 <_imageExecutionJumpToFirstInFlash+0x91f4e9b4>
9d00285c:	c73a4db2 	lwc1	$f26,19890(t9)
9d002860:	adf2c57a 	sw	s2,-14982(t7)
9d002864:	d7baedf2 	ldc1	$f26,-4622(sp)
9d002868:	d629d728 	ldc1	$f9,-10456(s1)
9d00286c:	d45baf23 	ldc1	$f27,-20701(v0)
9d002870:	6f95ea3f 	0x6f95ea3f
9d002874:	fcfd54ab 	sdc3	$29,21675(a3)
9d002878:	b87efdfe 	swr	s8,-514(v1)
9d00287c:	16c934c3 	bne	s6,t1,9d00fb8c <_data_image_begin+0xd25c>
9d002880:	13c41be1 	beq	s8,a0,9d009808 <_data_image_begin+0x6ed8>
9d002884:	92244aa5 	lbu	a0,19109(s1)
9d002888:	0855a248 	j	91568920 <_imageExecutionJumpToFirstInFlash+0x8f568920>
9d00288c:	50a619e2 	beql	a1,a2,9d009018 <_data_image_begin+0x66e8>
9d002890:	58a7d8a7 	0x58a7d8a7
9d002894:	5fa1956a 	0x5fa1956a
9d002898:	57af5b87 	bnel	sp,t7,9d0196b8 <_data_image_begin+0x16d88>
9d00289c:	7f867b8e 	0x7f867b8e
9d0028a0:	79867986 	maxi_u.b	$w6,$w15,6
9d0028a4:	1bc03b84 	blez	s8,9d0116b8 <_data_image_begin+0xed88>
9d0028a8:	46b14aa4 	c1	0xb14aa4
9d0028ac:	45ba45b8 	0x45ba45b8
9d0028b0:	d9af50fe 	ldc2	$15,20734(t5)
9d0028b4:	2f48544b 	sltiu	t0,k0,21579
9d0028b8:	20544349 	addi	s4,v0,17225
9d0028bc:	0062616c 	0x62616c
9d0028c0:	43206e69 	c0	0x1206e69
9d0028c4:	75706d6f 	jalx	95c1b5bc <_imageExecutionJumpToFirstInFlash+0x93c1b5bc>
9d0028c8:	00726574 	teq	v1,s2,0x195
9d0028cc:	69676e45 	0x69676e45
9d0028d0:	7265656e 	0x7265656e
9d0028d4:	00676e69 	0x676e69
9d0028d8:	636c6557 	0x636c6557
9d0028dc:	21656d6f 	addi	a1,t3,28015
9d0028e0:	00000000 	nop
9d0028e4:	72646441 	0x72646441
9d0028e8:	00000000 	nop
9d0028ec:	61746144 	0x61746144
9d0028f0:	00000000 	nop
9d0028f4:	33323130 	andi	s2,t9,0x3130
9d0028f8:	37363534 	ori	s6,t9,0x3534
9d0028fc:	42413938 	c0	0x413938
9d002900:	46454443 	c1	0x454443
9d002904:	00000000 	nop

9d002908 <maxneg.1101>:
9d002908:	3431322d 	ori	s1,at,0x322d
9d00290c:	33383437 	andi	t8,t9,0x3437
9d002910:	00383436 	tne	at,t8,0xd0

Disassembly of section .MIPS.abiflags:

9d002918 <_program_mem_end-0x18>:
9d002918:	02200000 	0x2200000
9d00291c:	03000001 	movf	zero,t8,$fcc0
	...
9d002928:	00000001 	movf	zero,zero,$fcc0
9d00292c:	00000000 	nop

Disassembly of section .data:

a0000008 <_data_begin>:
a0000008:	0012d687 	0x12d687

a000000c <mytime>:
a000000c:	00005957 	0x5957

a0000010 <textstring>:
a0000010:	74786574 	jalx	a1e195d0 <_stack+0x1e155d0>
a0000014:	6f6d202c 	0x6f6d202c
a0000018:	74206572 	jalx	a08195c8 <_stack+0x8155c8>
a000001c:	2c747865 	sltiu	s4,v1,30821
a0000020:	646e6120 	0x646e6120
a0000024:	65766520 	0x65766520
a0000028:	6f6d206e 	0x6f6d206e
a000002c:	74206572 	jalx	a08195c8 <_stack+0x8155c8>
a0000030:	21747865 	addi	s4,t3,30821
a0000034:	00000000 	nop

Disassembly of section .bss:

a0000038 <textbuffer>:
	...

Disassembly of section .bss:

a0000078 <timeoutcount>:
a0000078:	00000000 	nop

a000007c <itoa_buffer.1100>:
	...

Disassembly of section .comment:

00000000 <.comment>:
   0:	3a434347 	xori	v1,s2,0x4347
   4:	4e472820 	madd.s	$f0,$f18,$f5,$f7
   8:	34202955 	ori	zero,at,0x2955
   c:	322e392e 	andi	t6,s1,0x392e
	...

Disassembly of section .gnu.attributes:

00000000 <.gnu.attributes>:
   0:	00000f41 	0xf41
   4:	756e6700 	jalx	5b99c00 <_imageExecutionJumpToFirstInFlash+0x3b99c00>
   8:	00070100 	sll	zero,a3,0x4
   c:	03040000 	0x3040000
